
dm_afs.ko:     file format elf64-x86-64


Disassembly of section .text:

0000000000000000 <afs_cleanq>:
afs_cleanq():
/home/austen/programming/dm-afs/src/dm_afs.c:137
 * This is scheduled on the global kernel workqueue. Simply
 * removes all elements which have finished processing.
 */
static void
afs_cleanq(struct work_struct *ws)
{
       0:	e8 00 00 00 00       	callq  5 <afs_cleanq+0x5>
			1: R_X86_64_PC32	__fentry__-0x4
       5:	55                   	push   %rbp
       6:	48 89 e5             	mov    %rsp,%rbp
       9:	41 57                	push   %r15
       b:	41 56                	push   %r14
       d:	41 55                	push   %r13
       f:	41 54                	push   %r12
/home/austen/programming/dm-afs/src/dm_afs.c:144
    struct afs_engine_queue *flight_eq = NULL;
    struct afs_map_queue *node = NULL, *node_extra = NULL;
    long long state;

    context = container_of(ws, struct afs_private, clean_ws);
    flight_eq = &context->flight_eq;
      11:	4c 8d bf d0 3f fe ff 	lea    -0x1c030(%rdi),%r15
/home/austen/programming/dm-afs/src/dm_afs.c:137
{
      18:	53                   	push   %rbx
spin_lock():
/usr/src/linux-headers-4.15.0-54-generic/./include/linux/spinlock.h:310
      19:	48 8d 9f d0 ef ff ff 	lea    -0x1030(%rdi),%rbx
afs_cleanq():
/home/austen/programming/dm-afs/src/dm_afs.c:137
      20:	49 89 fc             	mov    %rdi,%r12
      23:	48 83 ec 08          	sub    $0x8,%rsp
spin_lock():
/usr/src/linux-headers-4.15.0-54-generic/./include/linux/spinlock.h:310
      27:	48 89 df             	mov    %rbx,%rdi
      2a:	e8 00 00 00 00       	callq  2f <afs_cleanq+0x2f>
			2b: R_X86_64_PC32	_raw_spin_lock-0x4
afs_cleanq():
/home/austen/programming/dm-afs/src/dm_afs.c:147

    spin_lock(&flight_eq->mq_lock);
    list_for_each_entry_safe (node, node_extra, &flight_eq->mq.list, list) {
      2f:	49 8b 84 24 00 e0 ff 	mov    -0x2000(%r12),%rax
      36:	ff 
      37:	4c 8b 30             	mov    (%rax),%r14
      3a:	48 8d b8 d0 5f fe ff 	lea    -0x1a030(%rax),%rdi
      41:	49 81 ee 30 a0 01 00 	sub    $0x1a030,%r14
      48:	49 39 ff             	cmp    %rdi,%r15
      4b:	74 66                	je     b3 <afs_cleanq+0xb3>
list_del():
/usr/src/linux-headers-4.15.0-54-generic/./include/linux/list.h:126
      4d:	49 bd 00 01 00 00 00 	movabs $0xdead000000000100,%r13
      54:	00 ad de 
/usr/src/linux-headers-4.15.0-54-generic/./include/linux/list.h:127
      57:	49 bc 00 02 00 00 00 	movabs $0xdead000000000200,%r12
      5e:	00 ad de 
      61:	eb 19                	jmp    7c <afs_cleanq+0x7c>
afs_cleanq():
/home/austen/programming/dm-afs/src/dm_afs.c:147
      63:	49 8b 86 30 a0 01 00 	mov    0x1a030(%r14),%rax
      6a:	4d 39 f7             	cmp    %r14,%r15
      6d:	4c 89 f7             	mov    %r14,%rdi
      70:	48 8d 90 d0 5f fe ff 	lea    -0x1a030(%rax),%rdx
      77:	74 3a                	je     b3 <afs_cleanq+0xb3>
      79:	49 89 d6             	mov    %rdx,%r14
__read_once_size():
/usr/src/linux-headers-4.15.0-54-generic/./include/linux/compiler.h:188
      7c:	48 8b 87 00 90 01 00 	mov    0x19000(%rdi),%rax
afs_cleanq():
/home/austen/programming/dm-afs/src/dm_afs.c:149
        state = atomic64_read(&node->req.state);
        if (state == REQ_STATE_COMPLETED) {
      83:	48 83 f8 04          	cmp    $0x4,%rax
      87:	75 da                	jne    63 <afs_cleanq+0x63>
__list_del_entry():
/usr/src/linux-headers-4.15.0-54-generic/./include/linux/list.h:120
      89:	48 8b 97 30 a0 01 00 	mov    0x1a030(%rdi),%rdx
      90:	48 8b 87 38 a0 01 00 	mov    0x1a038(%rdi),%rax
__list_del():
/usr/src/linux-headers-4.15.0-54-generic/./include/linux/list.h:105
      97:	48 89 42 08          	mov    %rax,0x8(%rdx)
__write_once_size():
/usr/src/linux-headers-4.15.0-54-generic/./include/linux/compiler.h:217
      9b:	48 89 10             	mov    %rdx,(%rax)
list_del():
/usr/src/linux-headers-4.15.0-54-generic/./include/linux/list.h:126
      9e:	4c 89 af 30 a0 01 00 	mov    %r13,0x1a030(%rdi)
/usr/src/linux-headers-4.15.0-54-generic/./include/linux/list.h:127
      a5:	4c 89 a7 38 a0 01 00 	mov    %r12,0x1a038(%rdi)
afs_cleanq():
/home/austen/programming/dm-afs/src/dm_afs.c:151
            list_del(&node->list);
            kfree(node);
      ac:	e8 00 00 00 00       	callq  b1 <afs_cleanq+0xb1>
			ad: R_X86_64_PC32	kfree-0x4
      b1:	eb b0                	jmp    63 <afs_cleanq+0x63>
pv_queued_spin_unlock():
/usr/src/linux-headers-4.15.0-54-generic/./arch/x86/include/asm/paravirt.h:674
      b3:	48 89 df             	mov    %rbx,%rdi
      b6:	ff 14 25 00 00 00 00 	callq  *0x0
			b9: R_X86_64_32S	pv_lock_ops+0x8
afs_cleanq():
/home/austen/programming/dm-afs/src/dm_afs.c:155
        }
    }
    spin_unlock(&flight_eq->mq_lock);
}
      bd:	48 83 c4 08          	add    $0x8,%rsp
      c1:	5b                   	pop    %rbx
      c2:	41 5c                	pop    %r12
      c4:	41 5d                	pop    %r13
      c6:	41 5e                	pop    %r14
      c8:	41 5f                	pop    %r15
      ca:	5d                   	pop    %rbp
      cb:	c3                   	retq   
      cc:	0f 1f 40 00          	nopl   0x0(%rax)

00000000000000d0 <afs_map>:
afs_map():
/home/austen/programming/dm-afs/src/dm_afs.c:392
 *  DM_MAPIO_REQUEUE:   dm_afs encountered a problem and the bio needs to
 *                      be resubmitted.
 */
static int
afs_map(struct dm_target *ti, struct bio *bio)
{
      d0:	e8 00 00 00 00       	callq  d5 <afs_map+0x5>
			d1: R_X86_64_PC32	__fentry__-0x4
      d5:	55                   	push   %rbp
      d6:	48 89 e5             	mov    %rsp,%rbp
      d9:	41 55                	push   %r13
      db:	41 54                	push   %r12
      dd:	53                   	push   %rbx
      de:	49 89 f4             	mov    %rsi,%r12
      e1:	48 83 ec 08          	sub    $0x8,%rsp
/home/austen/programming/dm-afs/src/dm_afs.c:415
    // Moreover, we only support processing a single block per bio.
    // Hence, a request such as (length: 4KB, sector: 1) crosses
    // a block boundary and involves two blocks. For all such requests,
    // we truncate the bio to within the single page.

    sector_offset = bio->bi_iter.bi_sector % (AFS_BLOCK_SIZE / AFS_SECTOR_SIZE);
      e5:	8b 46 28             	mov    0x28(%rsi),%eax
/home/austen/programming/dm-afs/src/dm_afs.c:416
    max_sector_count = (AFS_BLOCK_SIZE / AFS_SECTOR_SIZE) - sector_offset;
      e8:	be 08 00 00 00       	mov    $0x8,%esi
/home/austen/programming/dm-afs/src/dm_afs.c:395
    struct afs_private *context = ti->private;
      ed:	4c 8b 6f 40          	mov    0x40(%rdi),%r13
/home/austen/programming/dm-afs/src/dm_afs.c:415
    sector_offset = bio->bi_iter.bi_sector % (AFS_BLOCK_SIZE / AFS_SECTOR_SIZE);
      f1:	83 e0 07             	and    $0x7,%eax
/home/austen/programming/dm-afs/src/dm_afs.c:416
    max_sector_count = (AFS_BLOCK_SIZE / AFS_SECTOR_SIZE) - sector_offset;
      f4:	29 c6                	sub    %eax,%esi
/home/austen/programming/dm-afs/src/dm_afs.c:417
    if (bio_sectors(bio) > max_sector_count) {
      f6:	41 8b 44 24 30       	mov    0x30(%r12),%eax
      fb:	c1 e8 09             	shr    $0x9,%eax
      fe:	39 f0                	cmp    %esi,%eax
     100:	0f 87 5d 01 00 00    	ja     263 <afs_map+0x193>
kmalloc_large():
/usr/src/linux-headers-4.15.0-54-generic/./include/linux/slab.h:433
     106:	ba 05 00 00 00       	mov    $0x5,%edx
     10b:	be c0 00 40 01       	mov    $0x14000c0,%esi
     110:	bf 00 b0 01 00       	mov    $0x1b000,%edi
     115:	e8 00 00 00 00       	callq  11a <afs_map+0x4a>
			116: R_X86_64_PC32	kmalloc_order_trace-0x4
afs_map():
/home/austen/programming/dm-afs/src/dm_afs.c:423
        dm_accept_partial_bio(bio, max_sector_count);
    }

    // Build request.
    map_element = kmalloc(sizeof(*map_element), GFP_KERNEL);
    afs_action(map_element, ret = DM_MAPIO_KILL, done, "could not allocate memory for request");
     11a:	48 85 c0             	test   %rax,%rax
kmalloc_large():
/usr/src/linux-headers-4.15.0-54-generic/./include/linux/slab.h:433
     11d:	48 89 c3             	mov    %rax,%rbx
afs_map():
/home/austen/programming/dm-afs/src/dm_afs.c:423
     120:	0f 84 4a 01 00 00    	je     270 <afs_map+0x1a0>
/home/austen/programming/dm-afs/src/dm_afs.c:426

    req = &map_element->req;
    req->bdev = context->bdev;
     126:	49 8b 45 08          	mov    0x8(%r13),%rax
     12a:	48 89 83 18 90 01 00 	mov    %rax,0x19018(%rbx)
/home/austen/programming/dm-afs/src/dm_afs.c:427
    req->map = context->afs_map;
     131:	49 8b 85 50 b0 03 00 	mov    0x3b050(%r13),%rax
__write_once_size():
/usr/src/linux-headers-4.15.0-54-generic/./include/linux/compiler.h:216
     138:	c7 83 70 90 01 00 00 	movl   $0x0,0x19070(%rbx)
     13f:	00 00 00 
afs_map():
/home/austen/programming/dm-afs/src/dm_afs.c:431
    req->config = &context->config;
    req->fs = &context->passive_fs;
    req->vector = &context->vector;
    req->allocated_write_page = NULL;
     142:	48 c7 83 38 90 01 00 	movq   $0x0,0x19038(%rbx)
     149:	00 00 00 00 
/home/austen/programming/dm-afs/src/dm_afs.c:433
    atomic_set(&req->pending, 0);
    spin_lock_init(&req->req_lock);
     14d:	c7 83 74 90 01 00 00 	movl   $0x0,0x19074(%rbx)
     154:	00 00 00 
__write_once_size():
/usr/src/linux-headers-4.15.0-54-generic/./include/linux/compiler.h:217
     157:	48 c7 83 00 90 01 00 	movq   $0x1,0x19000(%rbx)
     15e:	01 00 00 00 
afs_map():
/home/austen/programming/dm-afs/src/dm_afs.c:427
    req->map = context->afs_map;
     162:	48 89 83 10 90 01 00 	mov    %rax,0x19010(%rbx)
/home/austen/programming/dm-afs/src/dm_afs.c:428
    req->config = &context->config;
     169:	49 8d 45 10          	lea    0x10(%r13),%rax
     16d:	48 89 83 20 90 01 00 	mov    %rax,0x19020(%rbx)
/home/austen/programming/dm-afs/src/dm_afs.c:429
    req->fs = &context->passive_fs;
     174:	49 8d 85 00 20 00 00 	lea    0x2000(%r13),%rax
     17b:	48 89 83 28 90 01 00 	mov    %rax,0x19028(%rbx)
/home/austen/programming/dm-afs/src/dm_afs.c:430
    req->vector = &context->vector;
     182:	49 8d 85 08 21 00 00 	lea    0x2108(%r13),%rax
     189:	48 89 83 30 90 01 00 	mov    %rax,0x19030(%rbx)
/home/austen/programming/dm-afs/src/dm_afs.c:436
    atomic64_set(&req->state, REQ_STATE_GROUND);

    switch (bio_op(bio)) {
     190:	41 0f b6 44 24 10    	movzbl 0x10(%r12),%eax
     196:	83 f8 01             	cmp    $0x1,%eax
     199:	0f 86 80 00 00 00    	jbe    21f <afs_map+0x14f>
     19f:	83 f8 02             	cmp    $0x2,%eax
     1a2:	75 4d                	jne    1f1 <afs_map+0x121>
     1a4:	49 8d 9d 00 f0 01 00 	lea    0x1f000(%r13),%rbx
     1ab:	49 81 c5 00 30 00 00 	add    $0x3000,%r13
     1b2:	eb 0a                	jmp    1be <afs_map+0xee>
/home/austen/programming/dm-afs/src/dm_afs.c:450
        ret = DM_MAPIO_SUBMITTED;
        break;

    case REQ_OP_FLUSH:
        while (afs_eq_req_exist(&context->flight_eq, bio) || afs_eq_req_exist(&context->ground_eq, bio)) {
            msleep(1);
     1b4:	bf 01 00 00 00       	mov    $0x1,%edi
     1b9:	e8 00 00 00 00       	callq  1be <afs_map+0xee>
			1ba: R_X86_64_PC32	msleep-0x4
/home/austen/programming/dm-afs/src/dm_afs.c:449
        while (afs_eq_req_exist(&context->flight_eq, bio) || afs_eq_req_exist(&context->ground_eq, bio)) {
     1be:	4c 89 e6             	mov    %r12,%rsi
     1c1:	48 89 df             	mov    %rbx,%rdi
     1c4:	e8 00 00 00 00       	callq  1c9 <afs_map+0xf9>
			1c5: R_X86_64_PC32	afs_eq_req_exist-0x4
     1c9:	84 c0                	test   %al,%al
     1cb:	75 e7                	jne    1b4 <afs_map+0xe4>
/home/austen/programming/dm-afs/src/dm_afs.c:449 (discriminator 1)
     1cd:	4c 89 e6             	mov    %r12,%rsi
     1d0:	4c 89 ef             	mov    %r13,%rdi
     1d3:	e8 00 00 00 00       	callq  1d8 <afs_map+0x108>
			1d4: R_X86_64_PC32	afs_eq_req_exist-0x4
     1d8:	84 c0                	test   %al,%al
     1da:	75 d8                	jne    1b4 <afs_map+0xe4>
/home/austen/programming/dm-afs/src/dm_afs.c:452
        }
        bio_endio(bio);
     1dc:	4c 89 e7             	mov    %r12,%rdi
     1df:	e8 00 00 00 00       	callq  1e4 <afs_map+0x114>
			1e0: R_X86_64_PC32	bio_endio-0x4
/home/austen/programming/dm-afs/src/dm_afs.c:469
        if (map_element) {
            kfree(map_element);
        }
    }
    return ret;
}
     1e4:	48 83 c4 08          	add    $0x8,%rsp
/home/austen/programming/dm-afs/src/dm_afs.c:453
        ret = DM_MAPIO_SUBMITTED;
     1e8:	31 c0                	xor    %eax,%eax
/home/austen/programming/dm-afs/src/dm_afs.c:469
}
     1ea:	5b                   	pop    %rbx
     1eb:	41 5c                	pop    %r12
     1ed:	41 5d                	pop    %r13
     1ef:	5d                   	pop    %rbp
     1f0:	c3                   	retq   
/home/austen/programming/dm-afs/src/dm_afs.c:457
        afs_debug("unknown operation");
     1f1:	8b 05 00 00 00 00    	mov    0x0(%rip),%eax        # 1f7 <afs_map+0x127>
			1f3: R_X86_64_PC32	afs_debug_mode-0x4
     1f7:	85 c0                	test   %eax,%eax
     1f9:	0f 85 9d 00 00 00    	jne    29c <afs_map+0x1cc>
/home/austen/programming/dm-afs/src/dm_afs.c:463
        bio_endio(bio);
     1ff:	4c 89 e7             	mov    %r12,%rdi
     202:	e8 00 00 00 00       	callq  207 <afs_map+0x137>
			203: R_X86_64_PC32	bio_endio-0x4
/home/austen/programming/dm-afs/src/dm_afs.c:465
            kfree(map_element);
     207:	48 89 df             	mov    %rbx,%rdi
     20a:	e8 00 00 00 00       	callq  20f <afs_map+0x13f>
			20b: R_X86_64_PC32	kfree-0x4
     20f:	b8 04 00 00 00       	mov    $0x4,%eax
/home/austen/programming/dm-afs/src/dm_afs.c:469
}
     214:	48 83 c4 08          	add    $0x8,%rsp
     218:	5b                   	pop    %rbx
     219:	41 5c                	pop    %r12
     21b:	41 5d                	pop    %r13
     21d:	5d                   	pop    %rbp
     21e:	c3                   	retq   
/home/austen/programming/dm-afs/src/dm_afs.c:440
        afs_action(req->bio, ret = DM_MAPIO_KILL, done, "could not clone bio");
     21f:	4d 85 e4             	test   %r12,%r12
/home/austen/programming/dm-afs/src/dm_afs.c:439
        req->bio = __clone_bio(bio, &req->allocated_write_page, true);
     222:	4c 89 a3 08 90 01 00 	mov    %r12,0x19008(%rbx)
/home/austen/programming/dm-afs/src/dm_afs.c:440
        afs_action(req->bio, ret = DM_MAPIO_KILL, done, "could not clone bio");
     229:	0f 84 8c 00 00 00    	je     2bb <afs_map+0x1eb>
/home/austen/programming/dm-afs/src/dm_afs.c:441
        afs_eq_add(&context->ground_eq, map_element);
     22f:	49 8d bd 00 30 00 00 	lea    0x3000(%r13),%rdi
     236:	48 89 de             	mov    %rbx,%rsi
     239:	e8 00 00 00 00       	callq  23e <afs_map+0x16e>
			23a: R_X86_64_PC32	afs_eq_add-0x4
queue_work():
/usr/src/linux-headers-4.15.0-54-generic/./include/linux/workqueue.h:489
     23e:	49 8b b5 00 b0 03 00 	mov    0x3b000(%r13),%rsi
afs_map():
/home/austen/programming/dm-afs/src/dm_afs.c:444
        queue_work(context->ground_wq, &context->ground_ws);
     245:	49 8d 95 10 b0 03 00 	lea    0x3b010(%r13),%rdx
queue_work():
/usr/src/linux-headers-4.15.0-54-generic/./include/linux/workqueue.h:489
     24c:	bf 00 20 00 00       	mov    $0x2000,%edi
     251:	e8 00 00 00 00       	callq  256 <afs_map+0x186>
			252: R_X86_64_PC32	queue_work_on-0x4
afs_map():
/home/austen/programming/dm-afs/src/dm_afs.c:469
}
     256:	48 83 c4 08          	add    $0x8,%rsp
/home/austen/programming/dm-afs/src/dm_afs.c:445
        ret = DM_MAPIO_SUBMITTED;
     25a:	31 c0                	xor    %eax,%eax
/home/austen/programming/dm-afs/src/dm_afs.c:469
}
     25c:	5b                   	pop    %rbx
     25d:	41 5c                	pop    %r12
     25f:	41 5d                	pop    %r13
     261:	5d                   	pop    %rbp
     262:	c3                   	retq   
/home/austen/programming/dm-afs/src/dm_afs.c:418
        dm_accept_partial_bio(bio, max_sector_count);
     263:	4c 89 e7             	mov    %r12,%rdi
     266:	e8 00 00 00 00       	callq  26b <afs_map+0x19b>
			267: R_X86_64_PC32	dm_accept_partial_bio-0x4
     26b:	e9 96 fe ff ff       	jmpq   106 <afs_map+0x36>
/home/austen/programming/dm-afs/src/dm_afs.c:423 (discriminator 1)
    afs_action(map_element, ret = DM_MAPIO_KILL, done, "could not allocate memory for request");
     270:	ba a7 01 00 00       	mov    $0x1a7,%edx
     275:	48 c7 c6 00 00 00 00 	mov    $0x0,%rsi
			278: R_X86_64_32S	.rodata+0x50
     27c:	48 c7 c7 00 00 00 00 	mov    $0x0,%rdi
			27f: R_X86_64_32S	.rodata.str1.8
     283:	31 c0                	xor    %eax,%eax
     285:	e8 00 00 00 00       	callq  28a <afs_map+0x1ba>
			286: R_X86_64_PC32	printk-0x4
/home/austen/programming/dm-afs/src/dm_afs.c:463 (discriminator 1)
        bio_endio(bio);
     28a:	4c 89 e7             	mov    %r12,%rdi
     28d:	e8 00 00 00 00       	callq  292 <afs_map+0x1c2>
			28e: R_X86_64_PC32	bio_endio-0x4
     292:	b8 04 00 00 00       	mov    $0x4,%eax
     297:	e9 78 ff ff ff       	jmpq   214 <afs_map+0x144>
/home/austen/programming/dm-afs/src/dm_afs.c:457 (discriminator 1)
        afs_debug("unknown operation");
     29c:	ba c9 01 00 00       	mov    $0x1c9,%edx
     2a1:	48 c7 c6 00 00 00 00 	mov    $0x0,%rsi
			2a4: R_X86_64_32S	.rodata+0x50
     2a8:	48 c7 c7 00 00 00 00 	mov    $0x0,%rdi
			2ab: R_X86_64_32S	.rodata.str1.8+0x70
     2af:	31 c0                	xor    %eax,%eax
     2b1:	e8 00 00 00 00       	callq  2b6 <afs_map+0x1e6>
			2b2: R_X86_64_PC32	printk-0x4
     2b6:	e9 44 ff ff ff       	jmpq   1ff <afs_map+0x12f>
/home/austen/programming/dm-afs/src/dm_afs.c:440 (discriminator 1)
        afs_action(req->bio, ret = DM_MAPIO_KILL, done, "could not clone bio");
     2bb:	ba b8 01 00 00       	mov    $0x1b8,%edx
     2c0:	48 c7 c6 00 00 00 00 	mov    $0x0,%rsi
			2c3: R_X86_64_32S	.rodata+0x50
     2c7:	48 c7 c7 00 00 00 00 	mov    $0x0,%rdi
			2ca: R_X86_64_32S	.rodata.str1.8+0x40
     2ce:	31 c0                	xor    %eax,%eax
     2d0:	e8 00 00 00 00       	callq  2d5 <afs_map+0x205>
			2d1: R_X86_64_PC32	printk-0x4
     2d5:	e9 25 ff ff ff       	jmpq   1ff <afs_map+0x12f>
     2da:	66 0f 1f 44 00 00    	nopw   0x0(%rax,%rax,1)

00000000000002e0 <afs_groundq>:
afs_groundq():
/home/austen/programming/dm-afs/src/dm_afs.c:221
{
     2e0:	e8 00 00 00 00       	callq  2e5 <afs_groundq+0x5>
			2e1: R_X86_64_PC32	__fentry__-0x4
     2e5:	55                   	push   %rbp
spin_lock():
/usr/src/linux-headers-4.15.0-54-generic/./include/linux/spinlock.h:310
     2e6:	48 8d 87 f0 2f fe ff 	lea    -0x1d010(%rdi),%rax
afs_groundq():
/home/austen/programming/dm-afs/src/dm_afs.c:221
     2ed:	48 89 e5             	mov    %rsp,%rbp
     2f0:	41 57                	push   %r15
     2f2:	41 56                	push   %r14
     2f4:	41 55                	push   %r13
     2f6:	41 54                	push   %r12
     2f8:	49 89 fe             	mov    %rdi,%r14
     2fb:	53                   	push   %rbx
/home/austen/programming/dm-afs/src/dm_afs.c:230
    ground_eq = &context->ground_eq;
     2fc:	48 8d 9f f0 4f fc ff 	lea    -0x3b010(%rdi),%rbx
/home/austen/programming/dm-afs/src/dm_afs.c:221
{
     303:	48 83 ec 18          	sub    $0x18,%rsp
/home/austen/programming/dm-afs/src/dm_afs.c:230
    ground_eq = &context->ground_eq;
     307:	4c 8d a3 00 30 00 00 	lea    0x3000(%rbx),%r12
spin_lock():
/usr/src/linux-headers-4.15.0-54-generic/./include/linux/spinlock.h:310
     30e:	48 89 45 c8          	mov    %rax,-0x38(%rbp)
afs_groundq():
/home/austen/programming/dm-afs/src/dm_afs.c:231
    flight_eq = &context->flight_eq;
     312:	48 81 c3 00 f0 01 00 	add    $0x1f000,%rbx
/home/austen/programming/dm-afs/src/dm_afs.c:233
    while (!afs_eq_empty(ground_eq)) {
     319:	4c 89 e7             	mov    %r12,%rdi
     31c:	e8 00 00 00 00       	callq  321 <afs_groundq+0x41>
			31d: R_X86_64_PC32	afs_eq_empty-0x4
     321:	84 c0                	test   %al,%al
     323:	0f 85 1f 01 00 00    	jne    448 <afs_groundq+0x168>
spin_lock():
/usr/src/linux-headers-4.15.0-54-generic/./include/linux/spinlock.h:310
     329:	48 8b 7d c8          	mov    -0x38(%rbp),%rdi
     32d:	e8 00 00 00 00       	callq  332 <afs_groundq+0x52>
			32e: R_X86_64_PC32	_raw_spin_lock-0x4
afs_groundq():
/home/austen/programming/dm-afs/src/dm_afs.c:249
        list_for_each_entry_safe (node, node_extra, &ground_eq->mq.list, list) {
     332:	49 8b 86 20 20 fe ff 	mov    -0x1dfe0(%r14),%rax
     339:	4c 8d b8 d0 5f fe ff 	lea    -0x1a030(%rax),%r15
     340:	48 8b 08             	mov    (%rax),%rcx
     343:	4d 39 fc             	cmp    %r15,%r12
     346:	4c 8d a9 d0 5f fe ff 	lea    -0x1a030(%rcx),%r13
     34d:	75 21                	jne    370 <afs_groundq+0x90>
     34f:	e9 03 01 00 00       	jmpq   457 <afs_groundq+0x177>
     354:	49 8b 85 30 a0 01 00 	mov    0x1a030(%r13),%rax
     35b:	4d 89 ef             	mov    %r13,%r15
     35e:	48 2d 30 a0 01 00    	sub    $0x1a030,%rax
     364:	4d 39 ec             	cmp    %r13,%r12
     367:	0f 84 ea 00 00 00    	je     457 <afs_groundq+0x177>
     36d:	49 89 c5             	mov    %rax,%r13
/home/austen/programming/dm-afs/src/dm_afs.c:250
            exists = afs_eq_req_exist(flight_eq, node->req.bio);
     370:	49 8b b7 08 90 01 00 	mov    0x19008(%r15),%rsi
     377:	48 89 df             	mov    %rbx,%rdi
     37a:	e8 00 00 00 00       	callq  37f <afs_groundq+0x9f>
			37b: R_X86_64_PC32	afs_eq_req_exist-0x4
/home/austen/programming/dm-afs/src/dm_afs.c:251
            if (!exists) {
     37f:	84 c0                	test   %al,%al
     381:	75 d1                	jne    354 <afs_groundq+0x74>
__list_del_entry():
/usr/src/linux-headers-4.15.0-54-generic/./include/linux/list.h:120
     383:	49 8b 87 38 a0 01 00 	mov    0x1a038(%r15),%rax
     38a:	49 8b 8f 30 a0 01 00 	mov    0x1a030(%r15),%rcx
__list_del():
/usr/src/linux-headers-4.15.0-54-generic/./include/linux/list.h:105
     391:	48 89 41 08          	mov    %rax,0x8(%rcx)
__write_once_size():
/usr/src/linux-headers-4.15.0-54-generic/./include/linux/compiler.h:217
     395:	48 89 08             	mov    %rcx,(%rax)
list_del():
/usr/src/linux-headers-4.15.0-54-generic/./include/linux/list.h:126
     398:	48 b8 00 01 00 00 00 	movabs $0xdead000000000100,%rax
     39f:	00 ad de 
     3a2:	49 89 87 30 a0 01 00 	mov    %rax,0x1a030(%r15)
/usr/src/linux-headers-4.15.0-54-generic/./include/linux/list.h:127
     3a9:	48 05 00 01 00 00    	add    $0x100,%rax
     3af:	49 89 87 38 a0 01 00 	mov    %rax,0x1a038(%r15)
pv_queued_spin_unlock():
/usr/src/linux-headers-4.15.0-54-generic/./arch/x86/include/asm/paravirt.h:674
     3b6:	48 8b 7d c8          	mov    -0x38(%rbp),%rdi
     3ba:	ff 14 25 00 00 00 00 	callq  *0x0
			3bd: R_X86_64_32S	pv_lock_ops+0x8
afs_groundq():
/home/austen/programming/dm-afs/src/dm_afs.c:263
        if (!element) {
     3c1:	4d 85 ff             	test   %r15,%r15
     3c4:	0f 84 95 00 00 00    	je     45f <afs_groundq+0x17f>
/home/austen/programming/dm-afs/src/dm_afs.c:270
        element->clean_ws = &context->clean_ws;
     3ca:	49 8d 46 20          	lea    0x20(%r14),%rax
/home/austen/programming/dm-afs/src/dm_afs.c:274
        afs_eq_add(flight_eq, element);
     3ce:	4c 89 fe             	mov    %r15,%rsi
     3d1:	48 89 df             	mov    %rbx,%rdi
/home/austen/programming/dm-afs/src/dm_afs.c:269
        element->eq = flight_eq;
     3d4:	49 89 9f 28 a0 01 00 	mov    %rbx,0x1a028(%r15)
/home/austen/programming/dm-afs/src/dm_afs.c:271
        INIT_WORK(&element->req_ws, afs_flightq);
     3db:	49 c7 87 18 a0 01 00 	movq   $0x0,0x1a018(%r15)
     3e2:	00 00 00 00 
			3e2: R_X86_64_32S	.text+0x5c0
/home/austen/programming/dm-afs/src/dm_afs.c:270
        element->clean_ws = &context->clean_ws;
     3e6:	49 89 87 20 a0 01 00 	mov    %rax,0x1a020(%r15)
/home/austen/programming/dm-afs/src/dm_afs.c:271
        INIT_WORK(&element->req_ws, afs_flightq);
     3ed:	48 b8 e0 ff ff ff 0f 	movabs $0xfffffffe0,%rax
     3f4:	00 00 00 
     3f7:	49 89 87 00 a0 01 00 	mov    %rax,0x1a000(%r15)
     3fe:	49 8d 87 08 a0 01 00 	lea    0x1a008(%r15),%rax
__write_once_size():
/usr/src/linux-headers-4.15.0-54-generic/./include/linux/compiler.h:217
     405:	49 89 87 08 a0 01 00 	mov    %rax,0x1a008(%r15)
INIT_LIST_HEAD():
/usr/src/linux-headers-4.15.0-54-generic/./include/linux/list.h:29
     40c:	49 89 87 10 a0 01 00 	mov    %rax,0x1a010(%r15)
__write_once_size():
/usr/src/linux-headers-4.15.0-54-generic/./include/linux/compiler.h:217
     413:	49 c7 87 00 90 01 00 	movq   $0x2,0x19000(%r15)
     41a:	02 00 00 00 
afs_groundq():
/home/austen/programming/dm-afs/src/dm_afs.c:274
        afs_eq_add(flight_eq, element);
     41e:	e8 00 00 00 00       	callq  423 <afs_groundq+0x143>
			41f: R_X86_64_PC32	afs_eq_add-0x4
queue_work():
/usr/src/linux-headers-4.15.0-54-generic/./include/linux/workqueue.h:489
     423:	49 8b 76 f8          	mov    -0x8(%r14),%rsi
afs_groundq():
/home/austen/programming/dm-afs/src/dm_afs.c:271
        INIT_WORK(&element->req_ws, afs_flightq);
     427:	49 8d 97 00 a0 01 00 	lea    0x1a000(%r15),%rdx
queue_work():
/usr/src/linux-headers-4.15.0-54-generic/./include/linux/workqueue.h:489
     42e:	bf 00 20 00 00       	mov    $0x2000,%edi
     433:	e8 00 00 00 00       	callq  438 <afs_groundq+0x158>
			434: R_X86_64_PC32	queue_work_on-0x4
afs_groundq():
/home/austen/programming/dm-afs/src/dm_afs.c:233
    while (!afs_eq_empty(ground_eq)) {
     438:	4c 89 e7             	mov    %r12,%rdi
     43b:	e8 00 00 00 00       	callq  440 <afs_groundq+0x160>
			43c: R_X86_64_PC32	afs_eq_empty-0x4
     440:	84 c0                	test   %al,%al
     442:	0f 84 e1 fe ff ff    	je     329 <afs_groundq+0x49>
/home/austen/programming/dm-afs/src/dm_afs.c:289
}
     448:	48 83 c4 18          	add    $0x18,%rsp
     44c:	5b                   	pop    %rbx
     44d:	41 5c                	pop    %r12
     44f:	41 5d                	pop    %r13
     451:	41 5e                	pop    %r14
     453:	41 5f                	pop    %r15
     455:	5d                   	pop    %rbp
     456:	c3                   	retq   
/home/austen/programming/dm-afs/src/dm_afs.c:234
        element = NULL;
     457:	45 31 ff             	xor    %r15d,%r15d
     45a:	e9 57 ff ff ff       	jmpq   3b6 <afs_groundq+0xd6>
/home/austen/programming/dm-afs/src/dm_afs.c:264
            msleep(1);
     45f:	bf 01 00 00 00       	mov    $0x1,%edi
     464:	e8 00 00 00 00       	callq  469 <afs_groundq+0x189>
			465: R_X86_64_PC32	msleep-0x4
/home/austen/programming/dm-afs/src/dm_afs.c:265
            continue;
     469:	e9 ab fe ff ff       	jmpq   319 <afs_groundq+0x39>
     46e:	66 90                	xchg   %ax,%ax

0000000000000470 <afs_dtr>:
afs_dtr():
/home/austen/programming/dm-afs/src/dm_afs.c:645
 *
 * @ti  Target instance to be destroyed.
 */
static void
afs_dtr(struct dm_target *ti)
{
     470:	e8 00 00 00 00       	callq  475 <afs_dtr+0x5>
			471: R_X86_64_PC32	__fentry__-0x4
     475:	55                   	push   %rbp
     476:	48 89 e5             	mov    %rsp,%rbp
     479:	41 56                	push   %r14
     47b:	41 55                	push   %r13
     47d:	41 54                	push   %r12
     47f:	53                   	push   %rbx
     480:	49 89 fe             	mov    %rdi,%r14
/home/austen/programming/dm-afs/src/dm_afs.c:646
    struct afs_private *context = ti->private;
     483:	48 8b 5f 40          	mov    0x40(%rdi),%rbx
     487:	4c 8d a3 00 f0 01 00 	lea    0x1f000(%rbx),%r12
     48e:	4c 8d ab 00 30 00 00 	lea    0x3000(%rbx),%r13
/home/austen/programming/dm-afs/src/dm_afs.c:650
    int err;

    // Wait for all requests to have processed. DO NOT busy wait.
    while (!afs_eq_empty(&context->flight_eq) || !afs_eq_empty(&context->ground_eq)) {
     495:	eb 0a                	jmp    4a1 <afs_dtr+0x31>
/home/austen/programming/dm-afs/src/dm_afs.c:651
        msleep(1);
     497:	bf 01 00 00 00       	mov    $0x1,%edi
     49c:	e8 00 00 00 00       	callq  4a1 <afs_dtr+0x31>
			49d: R_X86_64_PC32	msleep-0x4
/home/austen/programming/dm-afs/src/dm_afs.c:650
    while (!afs_eq_empty(&context->flight_eq) || !afs_eq_empty(&context->ground_eq)) {
     4a1:	4c 89 e7             	mov    %r12,%rdi
     4a4:	e8 00 00 00 00       	callq  4a9 <afs_dtr+0x39>
			4a5: R_X86_64_PC32	afs_eq_empty-0x4
     4a9:	84 c0                	test   %al,%al
     4ab:	74 ea                	je     497 <afs_dtr+0x27>
/home/austen/programming/dm-afs/src/dm_afs.c:650 (discriminator 1)
     4ad:	4c 89 ef             	mov    %r13,%rdi
     4b0:	e8 00 00 00 00       	callq  4b5 <afs_dtr+0x45>
			4b1: R_X86_64_PC32	afs_eq_empty-0x4
     4b5:	84 c0                	test   %al,%al
     4b7:	74 de                	je     497 <afs_dtr+0x27>
/home/austen/programming/dm-afs/src/dm_afs.c:655
    }

    // Update the Artifice map on the disk.
    err = afs_create_map_blocks(context);
     4b9:	48 89 df             	mov    %rbx,%rdi
     4bc:	e8 00 00 00 00       	callq  4c1 <afs_dtr+0x51>
			4bd: R_X86_64_PC32	afs_create_map_blocks-0x4
/home/austen/programming/dm-afs/src/dm_afs.c:656
    if (err) {
     4c1:	85 c0                	test   %eax,%eax
     4c3:	0f 85 8f 00 00 00    	jne    558 <afs_dtr+0xe8>
/home/austen/programming/dm-afs/src/dm_afs.c:659
        afs_alert("could not create Artifice map blocks [%d]", err);
    } else {
        err = write_map_blocks(context, true);
     4c9:	be 01 00 00 00       	mov    $0x1,%esi
     4ce:	48 89 df             	mov    %rbx,%rdi
     4d1:	e8 00 00 00 00       	callq  4d6 <afs_dtr+0x66>
			4d2: R_X86_64_PC32	write_map_blocks-0x4
/home/austen/programming/dm-afs/src/dm_afs.c:660
        if (err) {
     4d6:	85 c0                	test   %eax,%eax
     4d8:	0f 85 b7 00 00 00    	jne    595 <afs_dtr+0x125>
/home/austen/programming/dm-afs/src/dm_afs.c:663
            afs_alert("could not update Artifice map on disk [%d]", err);
        }
        vfree(context->afs_map_blocks);
     4de:	48 8b bb 58 b0 03 00 	mov    0x3b058(%rbx),%rdi
     4e5:	e8 00 00 00 00       	callq  4ea <afs_dtr+0x7a>
			4e6: R_X86_64_PC32	vfree-0x4
/home/austen/programming/dm-afs/src/dm_afs.c:668
    }
    

    // Free the Artifice pointer blocks.
    kfree(context->afs_ptr_blocks);
     4ea:	48 8b bb 60 b0 03 00 	mov    0x3b060(%rbx),%rdi
     4f1:	e8 00 00 00 00       	callq  4f6 <afs_dtr+0x86>
			4f2: R_X86_64_PC32	kfree-0x4
/home/austen/programming/dm-afs/src/dm_afs.c:671

    // Free the Artifice map.
    vfree(context->afs_map);
     4f6:	48 8b bb 50 b0 03 00 	mov    0x3b050(%rbx),%rdi
     4fd:	e8 00 00 00 00       	callq  502 <afs_dtr+0x92>
			4fe: R_X86_64_PC32	vfree-0x4
/home/austen/programming/dm-afs/src/dm_afs.c:674

    // Free the bit vector allocation.
    bit_vector_free(context->vector.vector);
     502:	48 8b bb 08 21 00 00 	mov    0x2108(%rbx),%rdi
     509:	e8 00 00 00 00       	callq  50e <afs_dtr+0x9e>
			50a: R_X86_64_PC32	bit_vector_free-0x4
/home/austen/programming/dm-afs/src/dm_afs.c:677

    // Free the block list for the passive FS.
    vfree(context->passive_fs.block_list);
     50e:	48 8b bb 00 20 00 00 	mov    0x2000(%rbx),%rdi
     515:	e8 00 00 00 00       	callq  51a <afs_dtr+0xaa>
			516: R_X86_64_PC32	vfree-0x4
/home/austen/programming/dm-afs/src/dm_afs.c:680

    // Put the device back.
    dm_put_device(ti, context->passive_dev);
     51a:	48 8b 33             	mov    (%rbx),%rsi
     51d:	4c 89 f7             	mov    %r14,%rdi
     520:	e8 00 00 00 00       	callq  525 <afs_dtr+0xb5>
			521: R_X86_64_PC32	dm_put_device-0x4
/home/austen/programming/dm-afs/src/dm_afs.c:683

    // Destroy the workqueues.
    destroy_workqueue(context->flight_wq);
     525:	48 8b bb 08 b0 03 00 	mov    0x3b008(%rbx),%rdi
     52c:	e8 00 00 00 00       	callq  531 <afs_dtr+0xc1>
			52d: R_X86_64_PC32	destroy_workqueue-0x4
/home/austen/programming/dm-afs/src/dm_afs.c:684
    destroy_workqueue(context->ground_wq);
     531:	48 8b bb 00 b0 03 00 	mov    0x3b000(%rbx),%rdi
     538:	e8 00 00 00 00       	callq  53d <afs_dtr+0xcd>
			539: R_X86_64_PC32	destroy_workqueue-0x4
/home/austen/programming/dm-afs/src/dm_afs.c:687

    // Free storage used by context.
    kfree(context);
     53d:	48 89 df             	mov    %rbx,%rdi
     540:	e8 00 00 00 00       	callq  545 <afs_dtr+0xd5>
			541: R_X86_64_PC32	kfree-0x4
/home/austen/programming/dm-afs/src/dm_afs.c:688
    afs_debug("destructor completed");
     545:	8b 05 00 00 00 00    	mov    0x0(%rip),%eax        # 54b <afs_dtr+0xdb>
			547: R_X86_64_PC32	afs_debug_mode-0x4
     54b:	85 c0                	test   %eax,%eax
     54d:	75 2a                	jne    579 <afs_dtr+0x109>
/home/austen/programming/dm-afs/src/dm_afs.c:689
}
     54f:	5b                   	pop    %rbx
     550:	41 5c                	pop    %r12
     552:	41 5d                	pop    %r13
     554:	41 5e                	pop    %r14
     556:	5d                   	pop    %rbp
     557:	c3                   	retq   
/home/austen/programming/dm-afs/src/dm_afs.c:657
        afs_alert("could not create Artifice map blocks [%d]", err);
     558:	89 c1                	mov    %eax,%ecx
     55a:	ba 91 02 00 00       	mov    $0x291,%edx
     55f:	48 c7 c6 00 00 00 00 	mov    $0x0,%rsi
			562: R_X86_64_32S	.rodata+0x48
     566:	48 c7 c7 00 00 00 00 	mov    $0x0,%rdi
			569: R_X86_64_32S	.rodata.str1.8+0xa0
     56d:	31 c0                	xor    %eax,%eax
     56f:	e8 00 00 00 00       	callq  574 <afs_dtr+0x104>
			570: R_X86_64_PC32	printk-0x4
     574:	e9 71 ff ff ff       	jmpq   4ea <afs_dtr+0x7a>
/home/austen/programming/dm-afs/src/dm_afs.c:688 (discriminator 1)
    afs_debug("destructor completed");
     579:	ba b0 02 00 00       	mov    $0x2b0,%edx
     57e:	48 c7 c6 00 00 00 00 	mov    $0x0,%rsi
			581: R_X86_64_32S	.rodata+0x48
     585:	48 c7 c7 00 00 00 00 	mov    $0x0,%rdi
			588: R_X86_64_32S	.rodata.str1.8+0x130
     58c:	31 c0                	xor    %eax,%eax
     58e:	e8 00 00 00 00       	callq  593 <afs_dtr+0x123>
			58f: R_X86_64_PC32	printk-0x4
/home/austen/programming/dm-afs/src/dm_afs.c:689 (discriminator 1)
}
     593:	eb ba                	jmp    54f <afs_dtr+0xdf>
/home/austen/programming/dm-afs/src/dm_afs.c:661
            afs_alert("could not update Artifice map on disk [%d]", err);
     595:	89 c1                	mov    %eax,%ecx
     597:	ba 95 02 00 00       	mov    $0x295,%edx
     59c:	48 c7 c6 00 00 00 00 	mov    $0x0,%rsi
			59f: R_X86_64_32S	.rodata+0x48
     5a3:	48 c7 c7 00 00 00 00 	mov    $0x0,%rdi
			5a6: R_X86_64_32S	.rodata.str1.8+0xe8
     5aa:	31 c0                	xor    %eax,%eax
     5ac:	e8 00 00 00 00       	callq  5b1 <afs_dtr+0x141>
			5ad: R_X86_64_PC32	printk-0x4
     5b1:	e9 28 ff ff ff       	jmpq   4de <afs_dtr+0x6e>
     5b6:	66 2e 0f 1f 84 00 00 	nopw   %cs:0x0(%rax,%rax,1)
     5bd:	00 00 00 

00000000000005c0 <afs_flightq>:
afs_flightq():
/home/austen/programming/dm-afs/src/dm_afs.c:162
{
     5c0:	e8 00 00 00 00       	callq  5c5 <afs_flightq+0x5>
			5c1: R_X86_64_PC32	__fentry__-0x4
     5c5:	55                   	push   %rbp
     5c6:	48 89 e5             	mov    %rsp,%rbp
     5c9:	41 54                	push   %r12
spin_lock():
/usr/src/linux-headers-4.15.0-54-generic/./include/linux/spinlock.h:310
     5cb:	4c 8d a7 74 f0 ff ff 	lea    -0xf8c(%rdi),%r12
afs_flightq():
/home/austen/programming/dm-afs/src/dm_afs.c:162
     5d2:	53                   	push   %rbx
     5d3:	48 89 fb             	mov    %rdi,%rbx
spin_lock():
/usr/src/linux-headers-4.15.0-54-generic/./include/linux/spinlock.h:310
     5d6:	4c 89 e7             	mov    %r12,%rdi
     5d9:	e8 00 00 00 00       	callq  5de <afs_flightq+0x1e>
			5da: R_X86_64_PC32	_raw_spin_lock-0x4
__read_once_size():
/usr/src/linux-headers-4.15.0-54-generic/./include/linux/compiler.h:188
     5de:	8b 83 70 f0 ff ff    	mov    -0xf90(%rbx),%eax
afs_flightq():
/home/austen/programming/dm-afs/src/dm_afs.c:171
    if(atomic_read(&req->pending) != 0){
     5e4:	85 c0                	test   %eax,%eax
     5e6:	74 13                	je     5fb <afs_flightq+0x3b>
/home/austen/programming/dm-afs/src/dm_afs.c:172
        afs_debug("already processing");
     5e8:	8b 15 00 00 00 00    	mov    0x0(%rip),%edx        # 5ee <afs_flightq+0x2e>
			5ea: R_X86_64_PC32	afs_debug_mode-0x4
     5ee:	85 d2                	test   %edx,%edx
     5f0:	0f 85 e4 00 00 00    	jne    6da <afs_flightq+0x11a>
/home/austen/programming/dm-afs/src/dm_afs.c:210
}
     5f6:	5b                   	pop    %rbx
     5f7:	41 5c                	pop    %r12
     5f9:	5d                   	pop    %rbp
     5fa:	c3                   	retq   
/home/austen/programming/dm-afs/src/dm_afs.c:176
    switch (bio_op(req->bio)) {
     5fb:	48 8b b3 08 f0 ff ff 	mov    -0xff8(%rbx),%rsi
/home/austen/programming/dm-afs/src/dm_afs.c:168
    req = &element->req;
     602:	48 8d bb 00 60 fe ff 	lea    -0x1a000(%rbx),%rdi
/home/austen/programming/dm-afs/src/dm_afs.c:176
    switch (bio_op(req->bio)) {
     609:	44 0f b6 46 10       	movzbl 0x10(%rsi),%r8d
     60e:	45 85 c0             	test   %r8d,%r8d
     611:	0f 84 b2 00 00 00    	je     6c9 <afs_flightq+0x109>
     617:	41 83 f8 01          	cmp    $0x1,%r8d
     61b:	74 7f                	je     69c <afs_flightq+0xdc>
/home/austen/programming/dm-afs/src/dm_afs.c:189
        afs_debug("This case should never be encountered!");
     61d:	8b 05 00 00 00 00    	mov    0x0(%rip),%eax        # 623 <afs_flightq+0x63>
			61f: R_X86_64_PC32	afs_debug_mode-0x4
     623:	85 c0                	test   %eax,%eax
     625:	0f 85 ce 00 00 00    	jne    6f9 <afs_flightq+0x139>
__read_once_size():
/usr/src/linux-headers-4.15.0-54-generic/./include/linux/compiler.h:188
     62b:	8b 83 70 f0 ff ff    	mov    -0xf90(%rbx),%eax
afs_flightq():
/home/austen/programming/dm-afs/src/dm_afs.c:192
    if(atomic_read(&req->pending) == 2){
     631:	83 f8 02             	cmp    $0x2,%eax
     634:	74 28                	je     65e <afs_flightq+0x9e>
/home/austen/programming/dm-afs/src/dm_afs.c:188
        ret = -EINVAL;
     636:	b8 ea ff ff ff       	mov    $0xffffffea,%eax
/home/austen/programming/dm-afs/src/dm_afs.c:195 (discriminator 1)
    afs_assert(!ret, done, "could not perform operation [%d:%d]", ret, bio_op(req->bio));
     63b:	89 c1                	mov    %eax,%ecx
     63d:	ba c3 00 00 00       	mov    $0xc3,%edx
     642:	48 c7 c6 00 00 00 00 	mov    $0x0,%rsi
			645: R_X86_64_32S	.rodata+0x30
     649:	48 c7 c7 00 00 00 00 	mov    $0x0,%rdi
			64c: R_X86_64_32S	.rodata.str1.8+0x1d0
     650:	31 c0                	xor    %eax,%eax
     652:	e8 00 00 00 00       	callq  657 <afs_flightq+0x97>
			653: R_X86_64_PC32	printk-0x4
     657:	48 8b b3 08 f0 ff ff 	mov    -0xff8(%rbx),%rsi
/home/austen/programming/dm-afs/src/dm_afs.c:201
    bio_endio(req->bio);
     65e:	48 89 f7             	mov    %rsi,%rdi
__write_once_size():
/usr/src/linux-headers-4.15.0-54-generic/./include/linux/compiler.h:217
     661:	48 c7 83 00 f0 ff ff 	movq   $0x4,-0x1000(%rbx)
     668:	04 00 00 00 
afs_flightq():
/home/austen/programming/dm-afs/src/dm_afs.c:201
     66c:	e8 00 00 00 00       	callq  671 <afs_flightq+0xb1>
			66d: R_X86_64_PC32	bio_endio-0x4
/home/austen/programming/dm-afs/src/dm_afs.c:205
    if (req->allocated_write_page) {
     671:	48 8b bb 38 f0 ff ff 	mov    -0xfc8(%rbx),%rdi
     678:	48 85 ff             	test   %rdi,%rdi
     67b:	74 05                	je     682 <afs_flightq+0xc2>
/home/austen/programming/dm-afs/src/dm_afs.c:206
        kfree(req->allocated_write_page);
     67d:	e8 00 00 00 00       	callq  682 <afs_flightq+0xc2>
			67e: R_X86_64_PC32	kfree-0x4
queue_work():
/usr/src/linux-headers-4.15.0-54-generic/./include/linux/workqueue.h:489
     682:	48 8b 53 20          	mov    0x20(%rbx),%rdx
     686:	48 8b 35 00 00 00 00 	mov    0x0(%rip),%rsi        # 68d <afs_flightq+0xcd>
			689: R_X86_64_PC32	system_wq-0x4
     68d:	bf 00 20 00 00       	mov    $0x2000,%edi
     692:	e8 00 00 00 00       	callq  697 <afs_flightq+0xd7>
			693: R_X86_64_PC32	queue_work_on-0x4
afs_flightq():
/home/austen/programming/dm-afs/src/dm_afs.c:210
}
     697:	5b                   	pop    %rbx
     698:	41 5c                	pop    %r12
     69a:	5d                   	pop    %rbp
     69b:	c3                   	retq   
__write_once_size():
/usr/src/linux-headers-4.15.0-54-generic/./include/linux/compiler.h:216
     69c:	c7 83 70 f0 ff ff 01 	movl   $0x1,-0xf90(%rbx)
     6a3:	00 00 00 
afs_flightq():
/home/austen/programming/dm-afs/src/dm_afs.c:184
        ret = afs_write_request(req, req->bio);
     6a6:	e8 00 00 00 00       	callq  6ab <afs_flightq+0xeb>
			6a7: R_X86_64_PC32	afs_write_request-0x4
__read_once_size():
/usr/src/linux-headers-4.15.0-54-generic/./include/linux/compiler.h:188
     6ab:	8b 93 70 f0 ff ff    	mov    -0xf90(%rbx),%edx
afs_flightq():
/home/austen/programming/dm-afs/src/dm_afs.c:192
    if(atomic_read(&req->pending) == 2){
     6b1:	83 fa 02             	cmp    $0x2,%edx
     6b4:	74 a1                	je     657 <afs_flightq+0x97>
/home/austen/programming/dm-afs/src/dm_afs.c:195
    afs_assert(!ret, done, "could not perform operation [%d:%d]", ret, bio_op(req->bio));
     6b6:	85 c0                	test   %eax,%eax
     6b8:	75 79                	jne    733 <afs_flightq+0x173>
pv_queued_spin_unlock():
/usr/src/linux-headers-4.15.0-54-generic/./arch/x86/include/asm/paravirt.h:674
     6ba:	4c 89 e7             	mov    %r12,%rdi
     6bd:	ff 14 25 00 00 00 00 	callq  *0x0
			6c0: R_X86_64_32S	pv_lock_ops+0x8
afs_flightq():
/home/austen/programming/dm-afs/src/dm_afs.c:210
}
     6c4:	5b                   	pop    %rbx
     6c5:	41 5c                	pop    %r12
     6c7:	5d                   	pop    %rbp
     6c8:	c3                   	retq   
__write_once_size():
/usr/src/linux-headers-4.15.0-54-generic/./include/linux/compiler.h:216
     6c9:	c7 83 70 f0 ff ff 01 	movl   $0x1,-0xf90(%rbx)
     6d0:	00 00 00 
afs_flightq():
/home/austen/programming/dm-afs/src/dm_afs.c:179
        ret = afs_read_request(req, req->bio);
     6d3:	e8 00 00 00 00       	callq  6d8 <afs_flightq+0x118>
			6d4: R_X86_64_PC32	afs_read_request-0x4
/home/austen/programming/dm-afs/src/dm_afs.c:180
        break;
     6d8:	eb d1                	jmp    6ab <afs_flightq+0xeb>
/home/austen/programming/dm-afs/src/dm_afs.c:172 (discriminator 1)
        afs_debug("already processing");
     6da:	ba ac 00 00 00       	mov    $0xac,%edx
     6df:	48 c7 c6 00 00 00 00 	mov    $0x0,%rsi
			6e2: R_X86_64_32S	.rodata+0x30
     6e6:	48 c7 c7 00 00 00 00 	mov    $0x0,%rdi
			6e9: R_X86_64_32S	.rodata.str1.8+0x160
     6ed:	31 c0                	xor    %eax,%eax
     6ef:	e8 00 00 00 00       	callq  6f4 <afs_flightq+0x134>
			6f0: R_X86_64_PC32	printk-0x4
     6f4:	e9 fd fe ff ff       	jmpq   5f6 <afs_flightq+0x36>
/home/austen/programming/dm-afs/src/dm_afs.c:189 (discriminator 1)
        afs_debug("This case should never be encountered!");
     6f9:	31 c0                	xor    %eax,%eax
     6fb:	ba bd 00 00 00       	mov    $0xbd,%edx
     700:	48 c7 c6 00 00 00 00 	mov    $0x0,%rsi
			703: R_X86_64_32S	.rodata+0x30
     707:	48 c7 c7 00 00 00 00 	mov    $0x0,%rdi
			70a: R_X86_64_32S	.rodata.str1.8+0x190
     70e:	e8 00 00 00 00       	callq  713 <afs_flightq+0x153>
			70f: R_X86_64_PC32	printk-0x4
__read_once_size():
/usr/src/linux-headers-4.15.0-54-generic/./include/linux/compiler.h:188 (discriminator 1)
     713:	8b 83 70 f0 ff ff    	mov    -0xf90(%rbx),%eax
afs_flightq():
/home/austen/programming/dm-afs/src/dm_afs.c:192 (discriminator 1)
    if(atomic_read(&req->pending) == 2){
     719:	83 f8 02             	cmp    $0x2,%eax
     71c:	0f 84 35 ff ff ff    	je     657 <afs_flightq+0x97>
     722:	48 8b 83 08 f0 ff ff 	mov    -0xff8(%rbx),%rax
     729:	44 0f b6 40 10       	movzbl 0x10(%rax),%r8d
     72e:	e9 03 ff ff ff       	jmpq   636 <afs_flightq+0x76>
     733:	48 8b 93 08 f0 ff ff 	mov    -0xff8(%rbx),%rdx
     73a:	44 0f b6 42 10       	movzbl 0x10(%rdx),%r8d
     73f:	e9 f7 fe ff ff       	jmpq   63b <afs_flightq+0x7b>
     744:	66 90                	xchg   %ax,%ax
     746:	66 2e 0f 1f 84 00 00 	nopw   %cs:0x0(%rax,%rax,1)
     74d:	00 00 00 

0000000000000750 <afs_ctr>:
afs_ctr():
/home/austen/programming/dm-afs/src/dm_afs.c:491
{
     750:	e8 00 00 00 00       	callq  755 <afs_ctr+0x5>
			751: R_X86_64_PC32	__fentry__-0x4
     755:	55                   	push   %rbp
     756:	48 89 e5             	mov    %rsp,%rbp
     759:	41 57                	push   %r15
     75b:	41 56                	push   %r14
     75d:	41 55                	push   %r13
     75f:	41 54                	push   %r12
     761:	53                   	push   %rbx
     762:	48 83 ec 18          	sub    $0x18,%rsp
/home/austen/programming/dm-afs/src/dm_afs.c:502
    instance_size = ti->len * AFS_SECTOR_SIZE;
     766:	48 8b 47 18          	mov    0x18(%rdi),%rax
/home/austen/programming/dm-afs/src/dm_afs.c:491
{
     76a:	48 89 7d c8          	mov    %rdi,-0x38(%rbp)
/home/austen/programming/dm-afs/src/dm_afs.c:502
    instance_size = ti->len * AFS_SECTOR_SIZE;
     76e:	49 89 c6             	mov    %rax,%r14
     771:	48 89 45 c0          	mov    %rax,-0x40(%rbp)
     775:	49 c1 e6 09          	shl    $0x9,%r14
/home/austen/programming/dm-afs/src/dm_afs.c:503
    afs_action(instance_size >= AFS_MIN_SIZE, ret = -EINVAL, err, "instance too small [%llu]", instance_size);
     779:	49 81 fe ff ff 00 00 	cmp    $0xffff,%r14
     780:	0f 86 3f 07 00 00    	jbe    ec5 <afs_ctr+0x775>
     786:	41 89 f5             	mov    %esi,%r13d
     789:	48 89 d3             	mov    %rdx,%rbx
kmalloc_large():
/usr/src/linux-headers-4.15.0-54-generic/./include/linux/slab.h:433
     78c:	be c0 00 40 01       	mov    $0x14000c0,%esi
     791:	ba 06 00 00 00       	mov    $0x6,%edx
     796:	bf 00 c0 03 00       	mov    $0x3c000,%edi
     79b:	e8 00 00 00 00       	callq  7a0 <afs_ctr+0x50>
			79c: R_X86_64_PC32	kmalloc_order_trace-0x4
afs_ctr():
/home/austen/programming/dm-afs/src/dm_afs.c:510
    afs_action(context, ret = -ENOMEM, err, "kmalloc failure [%d]", ret);
     7a0:	48 85 c0             	test   %rax,%rax
kmalloc_large():
/usr/src/linux-headers-4.15.0-54-generic/./include/linux/slab.h:433
     7a3:	49 89 c4             	mov    %rax,%r12
afs_ctr():
/home/austen/programming/dm-afs/src/dm_afs.c:510
     7a6:	0f 84 f0 06 00 00    	je     e9c <afs_ctr+0x74c>
memset():
/usr/src/linux-headers-4.15.0-54-generic/./include/linux/string.h:329
     7ac:	31 f6                	xor    %esi,%esi
     7ae:	ba 00 c0 03 00       	mov    $0x3c000,%edx
     7b3:	48 89 c7             	mov    %rax,%rdi
     7b6:	e8 00 00 00 00       	callq  7bb <afs_ctr+0x6b>
			7b7: R_X86_64_PC32	memset-0x4
parse_afs_args():
/home/austen/programming/dm-afs/src/dm_afs.c:75
    afs_assert(argc >= 3, err, "not enough arguments");
     7bb:	41 83 fd 02          	cmp    $0x2,%r13d
afs_ctr():
/home/austen/programming/dm-afs/src/dm_afs.c:512
    context->config.instance_size = instance_size;
     7bf:	4d 89 74 24 28       	mov    %r14,0x28(%r12)
/home/austen/programming/dm-afs/src/dm_afs.c:515
    args = &context->args;
     7c4:	4d 8d b4 24 20 20 00 	lea    0x2020(%r12),%r14
     7cb:	00 
parse_afs_args():
/home/austen/programming/dm-afs/src/dm_afs.c:75
    afs_assert(argc >= 3, err, "not enough arguments");
     7cc:	0f 86 ae 06 00 00    	jbe    e80 <afs_ctr+0x730>
memset():
/usr/src/linux-headers-4.15.0-54-generic/./include/linux/string.h:329
     7d2:	31 c0                	xor    %eax,%eax
     7d4:	b9 1c 00 00 00       	mov    $0x1c,%ecx
     7d9:	4c 89 f7             	mov    %r14,%rdi
     7dc:	f3 48 ab             	rep stos %rax,%es:(%rdi)
parse_afs_args():
/home/austen/programming/dm-afs/src/dm_afs.c:79
    afs_assert(!kstrtou8(argv[TYPE], BASE_10, &args->instance_type), err, "instance type not integer");
     7df:	49 8d 94 24 00 21 00 	lea    0x2100(%r12),%rdx
     7e6:	00 
     7e7:	be 0a 00 00 00       	mov    $0xa,%esi
memset():
/usr/src/linux-headers-4.15.0-54-generic/./include/linux/string.h:329
     7ec:	c6 07 00             	movb   $0x0,(%rdi)
parse_afs_args():
/home/austen/programming/dm-afs/src/dm_afs.c:79
     7ef:	48 8b 3b             	mov    (%rbx),%rdi
     7f2:	e8 00 00 00 00       	callq  7f7 <afs_ctr+0xa7>
			7f3: R_X86_64_PC32	kstrtou8-0x4
     7f7:	85 c0                	test   %eax,%eax
     7f9:	0f 85 91 07 00 00    	jne    f90 <afs_ctr+0x840>
strncpy():
/usr/src/linux-headers-4.15.0-54-generic/./include/linux/string.h:245
     7ff:	48 8b 73 08          	mov    0x8(%rbx),%rsi
     803:	ba 3f 00 00 00       	mov    $0x3f,%edx
     808:	4c 89 f7             	mov    %r14,%rdi
     80b:	e8 00 00 00 00       	callq  810 <afs_ctr+0xc0>
			80c: R_X86_64_PC32	strncpy-0x4
parse_afs_args():
/home/austen/programming/dm-afs/src/dm_afs.c:81
    strncpy(args->passive_dev, argv[DISK], PASSIVE_DEV_SZ - 1);
     810:	49 8d 84 24 a0 20 00 	lea    0x20a0(%r12),%rax
     817:	00 
strncpy():
/usr/src/linux-headers-4.15.0-54-generic/./include/linux/string.h:245
     818:	48 8b 73 10          	mov    0x10(%rbx),%rsi
     81c:	ba 1f 00 00 00       	mov    $0x1f,%edx
     821:	48 89 c7             	mov    %rax,%rdi
parse_afs_args():
/home/austen/programming/dm-afs/src/dm_afs.c:81
     824:	48 89 45 c0          	mov    %rax,-0x40(%rbp)
strncpy():
/usr/src/linux-headers-4.15.0-54-generic/./include/linux/string.h:245
     828:	e8 00 00 00 00       	callq  82d <afs_ctr+0xdd>
			829: R_X86_64_PC32	strncpy-0x4
parse_afs_args():
/home/austen/programming/dm-afs/src/dm_afs.c:82
    afs_debug("Type: %d", args->instance_type);
     82d:	44 8b 1d 00 00 00 00 	mov    0x0(%rip),%r11d        # 834 <afs_ctr+0xe4>
			830: R_X86_64_PC32	afs_debug_mode-0x4
     834:	45 85 db             	test   %r11d,%r11d
     837:	0f 85 72 07 00 00    	jne    faf <afs_ctr+0x85f>
/home/austen/programming/dm-afs/src/dm_afs.c:88
    for (i = DISK + 1; i < argc; i++) {
     83d:	41 83 fd 03          	cmp    $0x3,%r13d
     841:	0f 84 ab 00 00 00    	je     8f2 <afs_ctr+0x1a2>
     847:	41 8d 45 fc          	lea    -0x4(%r13),%eax
     84b:	41 be 04 00 00 00    	mov    $0x4,%r14d
     851:	d1 e8                	shr    %eax
     853:	44 8d 7c 00 06       	lea    0x6(%rax,%rax,1),%r15d
     858:	eb 2b                	jmp    885 <afs_ctr+0x135>
/home/austen/programming/dm-afs/src/dm_afs.c:90
            afs_assert(++i < argc, err, "missing value [entropy source]");
     85a:	45 39 f5             	cmp    %r14d,%r13d
     85d:	0f 86 e9 05 00 00    	jbe    e4c <afs_ctr+0x6fc>
/home/austen/programming/dm-afs/src/dm_afs.c:91
            strncpy(args->entropy_dir, argv[i], ENTROPY_DIR_SZ - 1);
     863:	49 63 c6             	movslq %r14d,%rax
strncpy():
/usr/src/linux-headers-4.15.0-54-generic/./include/linux/string.h:245
     866:	49 8d bc 24 c0 20 00 	lea    0x20c0(%r12),%rdi
     86d:	00 
     86e:	ba 3f 00 00 00       	mov    $0x3f,%edx
     873:	48 8b 34 c3          	mov    (%rbx,%rax,8),%rsi
     877:	41 83 c6 02          	add    $0x2,%r14d
     87b:	e8 00 00 00 00       	callq  880 <afs_ctr+0x130>
			87c: R_X86_64_PC32	strncpy-0x4
parse_afs_args():
/home/austen/programming/dm-afs/src/dm_afs.c:88
    for (i = DISK + 1; i < argc; i++) {
     880:	45 39 f7             	cmp    %r14d,%r15d
     883:	74 6d                	je     8f2 <afs_ctr+0x1a2>
/home/austen/programming/dm-afs/src/dm_afs.c:89
        if (!strcmp(argv[i], "--entropy")) {
     885:	41 8d 46 ff          	lea    -0x1(%r14),%eax
     889:	b9 0a 00 00 00       	mov    $0xa,%ecx
     88e:	48 c7 c7 00 00 00 00 	mov    $0x0,%rdi
			891: R_X86_64_32S	.rodata.str1.1
     895:	48 98                	cltq   
     897:	48 8b 14 c3          	mov    (%rbx,%rax,8),%rdx
     89b:	48 89 d6             	mov    %rdx,%rsi
     89e:	f3 a6                	repz cmpsb %es:(%rdi),%ds:(%rsi)
     8a0:	0f 97 c0             	seta   %al
     8a3:	1c 00                	sbb    $0x0,%al
     8a5:	84 c0                	test   %al,%al
     8a7:	74 b1                	je     85a <afs_ctr+0x10a>
/home/austen/programming/dm-afs/src/dm_afs.c:92
        } else if (!strcmp(argv[i], "--shadow_passphrase")) {
     8a9:	b9 14 00 00 00       	mov    $0x14,%ecx
     8ae:	48 89 d6             	mov    %rdx,%rsi
     8b1:	48 c7 c7 00 00 00 00 	mov    $0x0,%rdi
			8b4: R_X86_64_32S	.rodata.str1.1+0xa
     8b8:	f3 a6                	repz cmpsb %es:(%rdi),%ds:(%rsi)
     8ba:	0f 97 c0             	seta   %al
     8bd:	1c 00                	sbb    $0x0,%al
     8bf:	84 c0                	test   %al,%al
     8c1:	0f 85 47 05 00 00    	jne    e0e <afs_ctr+0x6be>
/home/austen/programming/dm-afs/src/dm_afs.c:93
            afs_assert(++i < argc, err, "missing value [shadow passphrase]");
     8c7:	45 39 f5             	cmp    %r14d,%r13d
     8ca:	0f 86 96 05 00 00    	jbe    e66 <afs_ctr+0x716>
/home/austen/programming/dm-afs/src/dm_afs.c:94
            strncpy(args->shadow_passphrase, argv[i], PASSPHRASE_SZ - 1);
     8d0:	49 63 c6             	movslq %r14d,%rax
strncpy():
/usr/src/linux-headers-4.15.0-54-generic/./include/linux/string.h:245
     8d3:	49 8d bc 24 60 20 00 	lea    0x2060(%r12),%rdi
     8da:	00 
     8db:	ba 3f 00 00 00       	mov    $0x3f,%edx
     8e0:	48 8b 34 c3          	mov    (%rbx,%rax,8),%rsi
     8e4:	41 83 c6 02          	add    $0x2,%r14d
     8e8:	e8 00 00 00 00       	callq  8ed <afs_ctr+0x19d>
			8e9: R_X86_64_PC32	strncpy-0x4
parse_afs_args():
/home/austen/programming/dm-afs/src/dm_afs.c:88
    for (i = DISK + 1; i < argc; i++) {
     8ed:	45 39 f7             	cmp    %r14d,%r15d
     8f0:	75 93                	jne    885 <afs_ctr+0x135>
/home/austen/programming/dm-afs/src/dm_afs.c:99
    afs_debug("Entropy: %s", args->entropy_dir);
     8f2:	44 8b 15 00 00 00 00 	mov    0x0(%rip),%r10d        # 8f9 <afs_ctr+0x1a9>
			8f5: R_X86_64_PC32	afs_debug_mode-0x4
     8f9:	45 85 d2             	test   %r10d,%r10d
     8fc:	0f 85 6a 07 00 00    	jne    106c <afs_ctr+0x91c>
/home/austen/programming/dm-afs/src/dm_afs.c:104
    switch (args->instance_type) {
     902:	41 0f b6 84 24 00 21 	movzbl 0x2100(%r12),%eax
     909:	00 00 
     90b:	3c 01                	cmp    $0x1,%al
     90d:	0f 84 69 03 00 00    	je     c7c <afs_ctr+0x52c>
     913:	0f 82 63 02 00 00    	jb     b7c <afs_ctr+0x42c>
     919:	3c 02                	cmp    $0x2,%al
     91b:	0f 85 cb 05 00 00    	jne    eec <afs_ctr+0x79c>
/home/austen/programming/dm-afs/src/dm_afs.c:116
        afs_assert(args->entropy_dir[0] != 0, err, "entropy source not provided");
     921:	41 80 bc 24 c0 20 00 	cmpb   $0x0,0x20c0(%r12)
     928:	00 00 
     92a:	0f 84 db 05 00 00    	je     f0b <afs_ctr+0x7bb>
/home/austen/programming/dm-afs/src/dm_afs.c:117
        afs_assert(args->shadow_passphrase[0] != 0, err, "shadow passphrase not provided");
     930:	41 80 bc 24 60 20 00 	cmpb   $0x0,0x2060(%r12)
     937:	00 00 
     939:	0f 84 eb 05 00 00    	je     f2a <afs_ctr+0x7da>
afs_ctr():
/home/austen/programming/dm-afs/src/dm_afs.c:521
    ret = dm_get_device(ti, args->passive_dev, dm_table_get_mode(ti->table), &context->passive_dev);
     93f:	48 8b 5d c8          	mov    -0x38(%rbp),%rbx
     943:	48 8b 3b             	mov    (%rbx),%rdi
     946:	e8 00 00 00 00       	callq  94b <afs_ctr+0x1fb>
			947: R_X86_64_PC32	dm_table_get_mode-0x4
     94b:	48 8b 75 c0          	mov    -0x40(%rbp),%rsi
     94f:	48 89 df             	mov    %rbx,%rdi
     952:	4c 89 e1             	mov    %r12,%rcx
     955:	89 c2                	mov    %eax,%edx
     957:	e8 00 00 00 00       	callq  95c <afs_ctr+0x20c>
			958: R_X86_64_PC32	dm_get_device-0x4
/home/austen/programming/dm-afs/src/dm_afs.c:522
    afs_assert(!ret, args_err, "could not find given disk [%s]", args->passive_dev);
     95c:	85 c0                	test   %eax,%eax
/home/austen/programming/dm-afs/src/dm_afs.c:521
    ret = dm_get_device(ti, args->passive_dev, dm_table_get_mode(ti->table), &context->passive_dev);
     95e:	89 c3                	mov    %eax,%ebx
/home/austen/programming/dm-afs/src/dm_afs.c:522
    afs_assert(!ret, args_err, "could not find given disk [%s]", args->passive_dev);
     960:	0f 85 e3 05 00 00    	jne    f49 <afs_ctr+0x7f9>
/home/austen/programming/dm-afs/src/dm_afs.c:523
    context->bdev = context->passive_dev->bdev;
     966:	49 8b 04 24          	mov    (%r12),%rax
kmalloc():
/usr/src/linux-headers-4.15.0-54-generic/./include/linux/slab.h:499
     96a:	48 8b 3d 00 00 00 00 	mov    0x0(%rip),%rdi        # 971 <afs_ctr+0x221>
			96d: R_X86_64_PC32	kmalloc_caches+0x5c
     971:	ba 00 10 00 00       	mov    $0x1000,%edx
     976:	be c0 00 40 01       	mov    $0x14000c0,%esi
afs_ctr():
/home/austen/programming/dm-afs/src/dm_afs.c:526
    fs = &context->passive_fs;
     97b:	4d 8d b4 24 00 20 00 	lea    0x2000(%r12),%r14
     982:	00 
/home/austen/programming/dm-afs/src/dm_afs.c:523
    context->bdev = context->passive_dev->bdev;
     983:	4c 8b 28             	mov    (%rax),%r13
     986:	4d 89 6c 24 08       	mov    %r13,0x8(%r12)
/home/austen/programming/dm-afs/src/dm_afs.c:524
    context->config.bdev_size = context->bdev->bd_part->nr_sects;
     98b:	49 8b 45 70          	mov    0x70(%r13),%rax
     98f:	48 8b 40 08          	mov    0x8(%rax),%rax
     993:	49 89 44 24 30       	mov    %rax,0x30(%r12)
kmalloc():
/usr/src/linux-headers-4.15.0-54-generic/./include/linux/slab.h:499
     998:	e8 00 00 00 00       	callq  99d <afs_ctr+0x24d>
			999: R_X86_64_PC32	kmem_cache_alloc_trace-0x4
detect_fs():
/home/austen/programming/dm-afs/src/dm_afs.c:32
    afs_action(page, ret = -ENOMEM, alloc_err, "could not allocate page [%d]", ret);
     99d:	48 85 c0             	test   %rax,%rax
kmalloc():
/usr/src/linux-headers-4.15.0-54-generic/./include/linux/slab.h:499
     9a0:	48 89 c3             	mov    %rax,%rbx
detect_fs():
/home/austen/programming/dm-afs/src/dm_afs.c:32
     9a3:	0f 84 c3 05 00 00    	je     f6c <afs_ctr+0x81c>
/home/austen/programming/dm-afs/src/dm_afs.c:33
    ret = read_page(page, device, 0, 0, false);
     9a9:	45 31 c0             	xor    %r8d,%r8d
     9ac:	31 c9                	xor    %ecx,%ecx
     9ae:	31 d2                	xor    %edx,%edx
     9b0:	4c 89 ee             	mov    %r13,%rsi
     9b3:	48 89 c7             	mov    %rax,%rdi
     9b6:	e8 00 00 00 00       	callq  9bb <afs_ctr+0x26b>
			9b7: R_X86_64_PC32	read_page-0x4
/home/austen/programming/dm-afs/src/dm_afs.c:34
    afs_assert(!ret, read_err, "could not read page [%d]", ret);
     9bb:	84 c0                	test   %al,%al
     9bd:	0f 85 ff 06 00 00    	jne    10c2 <afs_ctr+0x972>
/home/austen/programming/dm-afs/src/dm_afs.c:39
    if (afs_fat32_detect(page, device, fs)) {
     9c3:	4c 89 f2             	mov    %r14,%rdx
     9c6:	4c 89 ee             	mov    %r13,%rsi
     9c9:	48 89 df             	mov    %rbx,%rdi
     9cc:	e8 00 00 00 00       	callq  9d1 <afs_ctr+0x281>
			9cd: R_X86_64_PC32	afs_fat32_detect-0x4
     9d1:	84 c0                	test   %al,%al
     9d3:	0f 84 2b 02 00 00    	je     c04 <afs_ctr+0x4b4>
/home/austen/programming/dm-afs/src/dm_afs.c:48
    kfree(page);
     9d9:	48 89 df             	mov    %rbx,%rdi
     9dc:	e8 00 00 00 00       	callq  9e1 <afs_ctr+0x291>
			9dd: R_X86_64_PC32	kfree-0x4
/home/austen/programming/dm-afs/src/dm_afs.c:50
    afs_debug("detected %d", ret);
     9e1:	8b 35 00 00 00 00    	mov    0x0(%rip),%esi        # 9e7 <afs_ctr+0x297>
			9e3: R_X86_64_PC32	afs_debug_mode-0x4
     9e7:	85 f6                	test   %esi,%esi
     9e9:	0f 85 fd 06 00 00    	jne    10ec <afs_ctr+0x99c>
afs_ctr():
/home/austen/programming/dm-afs/src/dm_afs.c:562
    context->vector.vector = bit_vector_create((uint64_t)U32_MAX);
     9ef:	bf ff ff ff ff       	mov    $0xffffffff,%edi
     9f4:	e8 00 00 00 00       	callq  9f9 <afs_ctr+0x2a9>
			9f5: R_X86_64_PC32	bit_vector_create-0x4
/home/austen/programming/dm-afs/src/dm_afs.c:563
    afs_action(context->vector.vector, ret = -ENOMEM, vec_err, "could not allocate allocation vector");
     9f9:	48 85 c0             	test   %rax,%rax
/home/austen/programming/dm-afs/src/dm_afs.c:562
    context->vector.vector = bit_vector_create((uint64_t)U32_MAX);
     9fc:	49 89 84 24 08 21 00 	mov    %rax,0x2108(%r12)
     a03:	00 
/home/austen/programming/dm-afs/src/dm_afs.c:563
    afs_action(context->vector.vector, ret = -ENOMEM, vec_err, "could not allocate allocation vector");
     a04:	0f 84 2a 07 00 00    	je     1134 <afs_ctr+0x9e4>
/home/austen/programming/dm-afs/src/dm_afs.c:565
    allocation_set(&context->vector, AFS_INVALID_BLOCK);
     a0a:	49 8d bc 24 08 21 00 	lea    0x2108(%r12),%rdi
     a11:	00 
     a12:	be ff ff ff ff       	mov    $0xffffffff,%esi
/home/austen/programming/dm-afs/src/dm_afs.c:564
    spin_lock_init(&context->vector.lock);
     a17:	41 c7 84 24 10 21 00 	movl   $0x0,0x2110(%r12)
     a1e:	00 00 00 00 00 
/home/austen/programming/dm-afs/src/dm_afs.c:567
    sb = &context->super_block;
     a23:	49 8d 9c 24 00 10 00 	lea    0x1000(%r12),%rbx
     a2a:	00 
/home/austen/programming/dm-afs/src/dm_afs.c:565
    allocation_set(&context->vector, AFS_INVALID_BLOCK);
     a2b:	e8 00 00 00 00       	callq  a30 <afs_ctr+0x2e0>
			a2c: R_X86_64_PC32	allocation_set-0x4
/home/austen/programming/dm-afs/src/dm_afs.c:568
    switch (args->instance_type) {
     a30:	41 0f b6 84 24 00 21 	movzbl 0x2100(%r12),%eax
     a37:	00 00 
     a39:	84 c0                	test   %al,%al
     a3b:	0f 84 78 01 00 00    	je     bb9 <afs_ctr+0x469>
     a41:	3c 01                	cmp    $0x1,%al
     a43:	75 15                	jne    a5a <afs_ctr+0x30a>
/home/austen/programming/dm-afs/src/dm_afs.c:577
        ret = find_super_block(sb, context);
     a45:	48 89 df             	mov    %rbx,%rdi
     a48:	4c 89 e6             	mov    %r12,%rsi
     a4b:	e8 00 00 00 00       	callq  a50 <afs_ctr+0x300>
			a4c: R_X86_64_PC32	find_super_block-0x4
/home/austen/programming/dm-afs/src/dm_afs.c:578
        afs_assert(!ret, sb_err, "could not find super block [%d]", ret);
     a50:	85 c0                	test   %eax,%eax
/home/austen/programming/dm-afs/src/dm_afs.c:577
        ret = find_super_block(sb, context);
     a52:	89 c3                	mov    %eax,%ebx
/home/austen/programming/dm-afs/src/dm_afs.c:578
        afs_assert(!ret, sb_err, "could not find super block [%d]", ret);
     a54:	0f 85 3a 07 00 00    	jne    1194 <afs_ctr+0xa44>
/home/austen/programming/dm-afs/src/dm_afs.c:587
    context->ground_wq = alloc_workqueue("%s", WQ_UNBOUND | WQ_HIGHPRI, 1, "Artifice Ground WQ");
     a5a:	45 31 c0             	xor    %r8d,%r8d
     a5d:	31 c9                	xor    %ecx,%ecx
     a5f:	31 c0                	xor    %eax,%eax
     a61:	49 c7 c1 00 00 00 00 	mov    $0x0,%r9
			a64: R_X86_64_32S	.rodata.str1.1+0x1e
     a68:	ba 01 00 00 00       	mov    $0x1,%edx
     a6d:	be 12 00 00 00       	mov    $0x12,%esi
     a72:	48 c7 c7 00 00 00 00 	mov    $0x0,%rdi
			a75: R_X86_64_32S	.rodata.str1.1+0x31
     a79:	e8 00 00 00 00       	callq  a7e <afs_ctr+0x32e>
			a7a: R_X86_64_PC32	__alloc_workqueue_key-0x4
/home/austen/programming/dm-afs/src/dm_afs.c:588
    afs_action(!IS_ERR(context->ground_wq), ret = PTR_ERR(context->ground_wq), gwq_err, "could not create gwq [%d]", ret);
     a7e:	48 3d 00 f0 ff ff    	cmp    $0xfffffffffffff000,%rax
/home/austen/programming/dm-afs/src/dm_afs.c:587
    context->ground_wq = alloc_workqueue("%s", WQ_UNBOUND | WQ_HIGHPRI, 1, "Artifice Ground WQ");
     a84:	49 89 84 24 00 b0 03 	mov    %rax,0x3b000(%r12)
     a8b:	00 
/home/austen/programming/dm-afs/src/dm_afs.c:588
    afs_action(!IS_ERR(context->ground_wq), ret = PTR_ERR(context->ground_wq), gwq_err, "could not create gwq [%d]", ret);
     a8c:	0f 87 77 02 00 00    	ja     d09 <afs_ctr+0x5b9>
/home/austen/programming/dm-afs/src/dm_afs.c:590
    context->flight_wq = alloc_workqueue("%s", WQ_UNBOUND | WQ_HIGHPRI | WQ_CPU_INTENSIVE, 1, "Artifice Flight WQ");
     a92:	45 31 c0             	xor    %r8d,%r8d
     a95:	31 c9                	xor    %ecx,%ecx
     a97:	31 c0                	xor    %eax,%eax
     a99:	49 c7 c1 00 00 00 00 	mov    $0x0,%r9
			a9c: R_X86_64_32S	.rodata.str1.1+0x34
     aa0:	ba 01 00 00 00       	mov    $0x1,%edx
     aa5:	be 32 00 00 00       	mov    $0x32,%esi
     aaa:	48 c7 c7 00 00 00 00 	mov    $0x0,%rdi
			aad: R_X86_64_32S	.rodata.str1.1+0x31
     ab1:	e8 00 00 00 00       	callq  ab6 <afs_ctr+0x366>
			ab2: R_X86_64_PC32	__alloc_workqueue_key-0x4
/home/austen/programming/dm-afs/src/dm_afs.c:591
    afs_action(!IS_ERR(context->flight_wq), ret = PTR_ERR(context->flight_wq), fwq_err, "could not create fwq [%d]", ret);
     ab6:	48 3d 00 f0 ff ff    	cmp    $0xfffffffffffff000,%rax
/home/austen/programming/dm-afs/src/dm_afs.c:590
    context->flight_wq = alloc_workqueue("%s", WQ_UNBOUND | WQ_HIGHPRI | WQ_CPU_INTENSIVE, 1, "Artifice Flight WQ");
     abc:	49 89 84 24 08 b0 03 	mov    %rax,0x3b008(%r12)
     ac3:	00 
/home/austen/programming/dm-afs/src/dm_afs.c:591
    afs_action(!IS_ERR(context->flight_wq), ret = PTR_ERR(context->flight_wq), fwq_err, "could not create fwq [%d]", ret);
     ac4:	0f 87 b3 02 00 00    	ja     d7d <afs_ctr+0x62d>
/home/austen/programming/dm-afs/src/dm_afs.c:593
    INIT_WORK(&context->ground_ws, afs_groundq);
     aca:	48 b8 e0 ff ff ff 0f 	movabs $0xfffffffe0,%rax
     ad1:	00 00 00 
     ad4:	49 8d 94 24 18 b0 03 	lea    0x3b018(%r12),%rdx
     adb:	00 
/home/austen/programming/dm-afs/src/dm_afs.c:596
    afs_eq_init(&context->ground_eq);
     adc:	49 8d bc 24 00 30 00 	lea    0x3000(%r12),%rdi
     ae3:	00 
/home/austen/programming/dm-afs/src/dm_afs.c:593
    INIT_WORK(&context->ground_ws, afs_groundq);
     ae4:	49 89 84 24 10 b0 03 	mov    %rax,0x3b010(%r12)
     aeb:	00 
/home/austen/programming/dm-afs/src/dm_afs.c:594
    INIT_WORK(&context->clean_ws, afs_cleanq);
     aec:	49 89 84 24 30 b0 03 	mov    %rax,0x3b030(%r12)
     af3:	00 
     af4:	49 8d 84 24 38 b0 03 	lea    0x3b038(%r12),%rax
     afb:	00 
__write_once_size():
/usr/src/linux-headers-4.15.0-54-generic/./include/linux/compiler.h:217
     afc:	49 89 94 24 18 b0 03 	mov    %rdx,0x3b018(%r12)
     b03:	00 
INIT_LIST_HEAD():
/usr/src/linux-headers-4.15.0-54-generic/./include/linux/list.h:29
     b04:	49 89 94 24 20 b0 03 	mov    %rdx,0x3b020(%r12)
     b0b:	00 
__write_once_size():
/usr/src/linux-headers-4.15.0-54-generic/./include/linux/compiler.h:217
     b0c:	49 89 84 24 38 b0 03 	mov    %rax,0x3b038(%r12)
     b13:	00 
INIT_LIST_HEAD():
/usr/src/linux-headers-4.15.0-54-generic/./include/linux/list.h:29
     b14:	49 89 84 24 40 b0 03 	mov    %rax,0x3b040(%r12)
     b1b:	00 
afs_ctr():
/home/austen/programming/dm-afs/src/dm_afs.c:593
    INIT_WORK(&context->ground_ws, afs_groundq);
     b1c:	49 c7 84 24 28 b0 03 	movq   $0x0,0x3b028(%r12)
     b23:	00 00 00 00 00 
			b24: R_X86_64_32S	.text+0x2e0
/home/austen/programming/dm-afs/src/dm_afs.c:594
    INIT_WORK(&context->clean_ws, afs_cleanq);
     b28:	49 c7 84 24 48 b0 03 	movq   $0x0,0x3b048(%r12)
     b2f:	00 00 00 00 00 
			b30: R_X86_64_32S	.text
/home/austen/programming/dm-afs/src/dm_afs.c:596
    afs_eq_init(&context->ground_eq);
     b34:	e8 00 00 00 00       	callq  b39 <afs_ctr+0x3e9>
			b35: R_X86_64_PC32	afs_eq_init-0x4
/home/austen/programming/dm-afs/src/dm_afs.c:597
    afs_eq_init(&context->flight_eq);
     b39:	49 8d bc 24 00 f0 01 	lea    0x1f000(%r12),%rdi
     b40:	00 
     b41:	e8 00 00 00 00       	callq  b46 <afs_ctr+0x3f6>
			b42: R_X86_64_PC32	afs_eq_init-0x4
/home/austen/programming/dm-afs/src/dm_afs.c:600
    ret = cauchy_init();
     b46:	e8 00 00 00 00       	callq  b4b <afs_ctr+0x3fb>
			b47: R_X86_64_PC32	cauchy_init-0x4
/home/austen/programming/dm-afs/src/dm_afs.c:601
    afs_assert(!ret, encode_err, "could not initialize encoding library [%d]", ret);
     b4b:	85 c0                	test   %eax,%eax
/home/austen/programming/dm-afs/src/dm_afs.c:600
    ret = cauchy_init();
     b4d:	89 c3                	mov    %eax,%ebx
/home/austen/programming/dm-afs/src/dm_afs.c:601
    afs_assert(!ret, encode_err, "could not initialize encoding library [%d]", ret);
     b4f:	0f 85 d7 04 00 00    	jne    102c <afs_ctr+0x8dc>
/home/austen/programming/dm-afs/src/dm_afs.c:606
    afs_debug("constructor completed");
     b55:	8b 0d 00 00 00 00    	mov    0x0(%rip),%ecx        # b5b <afs_ctr+0x40b>
			b57: R_X86_64_PC32	afs_debug_mode-0x4
     b5b:	85 c9                	test   %ecx,%ecx
     b5d:	0f 85 f3 05 00 00    	jne    1156 <afs_ctr+0xa06>
/home/austen/programming/dm-afs/src/dm_afs.c:607
    ti->private = context;
     b63:	48 8b 45 c8          	mov    -0x38(%rbp),%rax
     b67:	4c 89 60 40          	mov    %r12,0x40(%rax)
/home/austen/programming/dm-afs/src/dm_afs.c:634
}
     b6b:	48 83 c4 18          	add    $0x18,%rsp
     b6f:	89 d8                	mov    %ebx,%eax
     b71:	5b                   	pop    %rbx
     b72:	41 5c                	pop    %r12
     b74:	41 5d                	pop    %r13
     b76:	41 5e                	pop    %r14
     b78:	41 5f                	pop    %r15
     b7a:	5d                   	pop    %rbp
     b7b:	c3                   	retq   
parse_afs_args():
/home/austen/programming/dm-afs/src/dm_afs.c:106
        afs_assert(args->entropy_dir[0] != 0, err, "entropy source not provided");
     b7c:	41 80 bc 24 c0 20 00 	cmpb   $0x0,0x20c0(%r12)
     b83:	00 00 
     b85:	0f 84 ea 05 00 00    	je     1175 <afs_ctr+0xa25>
/home/austen/programming/dm-afs/src/dm_afs.c:107
        afs_assert(args->shadow_passphrase[0] == 0, err, "shadow passphrase provided");
     b8b:	41 80 bc 24 60 20 00 	cmpb   $0x0,0x2060(%r12)
     b92:	00 00 
     b94:	0f 84 a5 fd ff ff    	je     93f <afs_ctr+0x1ef>
     b9a:	ba 6b 00 00 00       	mov    $0x6b,%edx
     b9f:	48 c7 c6 00 00 00 00 	mov    $0x0,%rsi
			ba2: R_X86_64_32S	.rodata+0x20
     ba6:	48 c7 c7 00 00 00 00 	mov    $0x0,%rdi
			ba9: R_X86_64_32S	.rodata.str1.8+0x490
     bad:	31 c0                	xor    %eax,%eax
     baf:	e8 00 00 00 00       	callq  bb4 <afs_ctr+0x464>
			bb0: R_X86_64_PC32	printk-0x4
     bb4:	e9 6f 02 00 00       	jmpq   e28 <afs_ctr+0x6d8>
afs_ctr():
/home/austen/programming/dm-afs/src/dm_afs.c:571
        build_configuration(context, 4, 1);
     bb9:	ba 01 00 00 00       	mov    $0x1,%edx
     bbe:	be 04 00 00 00       	mov    $0x4,%esi
     bc3:	4c 89 e7             	mov    %r12,%rdi
     bc6:	e8 00 00 00 00       	callq  bcb <afs_ctr+0x47b>
			bc7: R_X86_64_PC32	build_configuration-0x4
/home/austen/programming/dm-afs/src/dm_afs.c:572
        ret = write_super_block(sb, fs, context);
     bcb:	48 89 df             	mov    %rbx,%rdi
     bce:	4c 89 e2             	mov    %r12,%rdx
     bd1:	4c 89 f6             	mov    %r14,%rsi
     bd4:	e8 00 00 00 00       	callq  bd9 <afs_ctr+0x489>
			bd5: R_X86_64_PC32	write_super_block-0x4
/home/austen/programming/dm-afs/src/dm_afs.c:573
        afs_assert(!ret, sb_err, "could not write super block [%d]", ret);
     bd9:	85 c0                	test   %eax,%eax
/home/austen/programming/dm-afs/src/dm_afs.c:572
        ret = write_super_block(sb, fs, context);
     bdb:	89 c3                	mov    %eax,%ebx
/home/austen/programming/dm-afs/src/dm_afs.c:573
        afs_assert(!ret, sb_err, "could not write super block [%d]", ret);
     bdd:	0f 84 77 fe ff ff    	je     a5a <afs_ctr+0x30a>
/home/austen/programming/dm-afs/src/dm_afs.c:573 (discriminator 1)
     be3:	89 c1                	mov    %eax,%ecx
     be5:	ba 3d 02 00 00       	mov    $0x23d,%edx
     bea:	48 c7 c6 00 00 00 00 	mov    $0x0,%rsi
			bed: R_X86_64_32S	.rodata+0x40
     bf1:	48 c7 c7 00 00 00 00 	mov    $0x0,%rdi
			bf4: R_X86_64_32S	.rodata.str1.8+0x710
     bf8:	31 c0                	xor    %eax,%eax
     bfa:	e8 00 00 00 00       	callq  bff <afs_ctr+0x4af>
			bfb: R_X86_64_PC32	printk-0x4
     bff:	e9 3d 01 00 00       	jmpq   d41 <afs_ctr+0x5f1>
detect_fs():
/home/austen/programming/dm-afs/src/dm_afs.c:41
    } else if (afs_ext4_detect(page, device, fs)) {
     c04:	4c 89 f2             	mov    %r14,%rdx
     c07:	4c 89 ee             	mov    %r13,%rsi
     c0a:	48 89 df             	mov    %rbx,%rdi
     c0d:	e8 00 00 00 00       	callq  c12 <afs_ctr+0x4c2>
			c0e: R_X86_64_PC32	afs_ext4_detect-0x4
     c12:	84 c0                	test   %al,%al
     c14:	0f 84 9f 00 00 00    	je     cb9 <afs_ctr+0x569>
/home/austen/programming/dm-afs/src/dm_afs.c:48
    kfree(page);
     c1a:	48 89 df             	mov    %rbx,%rdi
     c1d:	e8 00 00 00 00       	callq  c22 <afs_ctr+0x4d2>
			c1e: R_X86_64_PC32	kfree-0x4
/home/austen/programming/dm-afs/src/dm_afs.c:50
    afs_debug("detected %d", ret);
     c22:	8b 3d 00 00 00 00    	mov    0x0(%rip),%edi        # c28 <afs_ctr+0x4d8>
			c24: R_X86_64_PC32	afs_debug_mode-0x4
     c28:	85 ff                	test   %edi,%edi
     c2a:	0f 84 bf fd ff ff    	je     9ef <afs_ctr+0x29f>
     c30:	ba 32 00 00 00       	mov    $0x32,%edx
     c35:	31 c0                	xor    %eax,%eax
     c37:	b9 01 00 00 00       	mov    $0x1,%ecx
     c3c:	48 c7 c6 00 00 00 00 	mov    $0x0,%rsi
			c3f: R_X86_64_32S	.rodata+0x10
     c43:	48 c7 c7 00 00 00 00 	mov    $0x0,%rdi
			c46: R_X86_64_32S	.rodata.str1.8+0x878
     c4a:	e8 00 00 00 00       	callq  c4f <afs_ctr+0x4ff>
			c4b: R_X86_64_PC32	printk-0x4
afs_ctr():
/home/austen/programming/dm-afs/src/dm_afs.c:538
        afs_debug("detected EXT4");
     c4f:	8b 15 00 00 00 00    	mov    0x0(%rip),%edx        # c55 <afs_ctr+0x505>
			c51: R_X86_64_PC32	afs_debug_mode-0x4
     c55:	85 d2                	test   %edx,%edx
     c57:	0f 84 92 fd ff ff    	je     9ef <afs_ctr+0x29f>
/home/austen/programming/dm-afs/src/dm_afs.c:538 (discriminator 1)
     c5d:	ba 1a 02 00 00       	mov    $0x21a,%edx
     c62:	48 c7 c6 00 00 00 00 	mov    $0x0,%rsi
			c65: R_X86_64_32S	.rodata+0x40
     c69:	48 c7 c7 00 00 00 00 	mov    $0x0,%rdi
			c6c: R_X86_64_32S	.rodata.str1.8+0x6a8
     c70:	31 c0                	xor    %eax,%eax
     c72:	e8 00 00 00 00       	callq  c77 <afs_ctr+0x527>
			c73: R_X86_64_PC32	printk-0x4
     c77:	e9 73 fd ff ff       	jmpq   9ef <afs_ctr+0x29f>
parse_afs_args():
/home/austen/programming/dm-afs/src/dm_afs.c:111
        afs_assert(args->entropy_dir[0] == 0, err, "entropy source provided");
     c7c:	41 80 bc 24 c0 20 00 	cmpb   $0x0,0x20c0(%r12)
     c83:	00 00 
     c85:	0f 85 c2 03 00 00    	jne    104d <afs_ctr+0x8fd>
/home/austen/programming/dm-afs/src/dm_afs.c:112
        afs_assert(args->shadow_passphrase[0] == 0, err, "shadow passphrase provided");
     c8b:	41 80 bc 24 60 20 00 	cmpb   $0x0,0x2060(%r12)
     c92:	00 00 
     c94:	0f 84 a5 fc ff ff    	je     93f <afs_ctr+0x1ef>
     c9a:	ba 70 00 00 00       	mov    $0x70,%edx
     c9f:	48 c7 c6 00 00 00 00 	mov    $0x0,%rsi
			ca2: R_X86_64_32S	.rodata+0x20
     ca6:	48 c7 c7 00 00 00 00 	mov    $0x0,%rdi
			ca9: R_X86_64_32S	.rodata.str1.8+0x490
     cad:	31 c0                	xor    %eax,%eax
     caf:	e8 00 00 00 00       	callq  cb4 <afs_ctr+0x564>
			cb0: R_X86_64_PC32	printk-0x4
     cb4:	e9 6f 01 00 00       	jmpq   e28 <afs_ctr+0x6d8>
detect_fs():
/home/austen/programming/dm-afs/src/dm_afs.c:43
    } else if (afs_ntfs_detect(page, device, fs)) {
     cb9:	48 89 df             	mov    %rbx,%rdi
     cbc:	4c 89 f2             	mov    %r14,%rdx
     cbf:	4c 89 ee             	mov    %r13,%rsi
     cc2:	e8 00 00 00 00       	callq  cc7 <afs_ctr+0x577>
			cc3: R_X86_64_PC32	afs_ntfs_detect-0x4
     cc7:	84 c0                	test   %al,%al
/home/austen/programming/dm-afs/src/dm_afs.c:48
    kfree(page);
     cc9:	48 89 df             	mov    %rbx,%rdi
/home/austen/programming/dm-afs/src/dm_afs.c:43
    } else if (afs_ntfs_detect(page, device, fs)) {
     ccc:	0f 85 db 00 00 00    	jne    dad <afs_ctr+0x65d>
/home/austen/programming/dm-afs/src/dm_afs.c:48
    kfree(page);
     cd2:	e8 00 00 00 00       	callq  cd7 <afs_ctr+0x587>
			cd3: R_X86_64_PC32	kfree-0x4
/home/austen/programming/dm-afs/src/dm_afs.c:50
    afs_debug("detected %d", ret);
     cd7:	44 8b 0d 00 00 00 00 	mov    0x0(%rip),%r9d        # cde <afs_ctr+0x58e>
			cda: R_X86_64_PC32	afs_debug_mode-0x4
     cde:	45 85 c9             	test   %r9d,%r9d
     ce1:	0f 84 08 fd ff ff    	je     9ef <afs_ctr+0x29f>
     ce7:	83 c9 ff             	or     $0xffffffff,%ecx
     cea:	ba 32 00 00 00       	mov    $0x32,%edx
     cef:	48 c7 c6 00 00 00 00 	mov    $0x0,%rsi
			cf2: R_X86_64_32S	.rodata+0x10
     cf6:	48 c7 c7 00 00 00 00 	mov    $0x0,%rdi
			cf9: R_X86_64_32S	.rodata.str1.8+0x878
     cfd:	31 c0                	xor    %eax,%eax
     cff:	e8 00 00 00 00       	callq  d04 <afs_ctr+0x5b4>
			d00: R_X86_64_PC32	printk-0x4
     d04:	e9 e6 fc ff ff       	jmpq   9ef <afs_ctr+0x29f>
afs_ctr():
/home/austen/programming/dm-afs/src/dm_afs.c:588 (discriminator 1)
    afs_action(!IS_ERR(context->ground_wq), ret = PTR_ERR(context->ground_wq), gwq_err, "could not create gwq [%d]", ret);
     d09:	89 c3                	mov    %eax,%ebx
     d0b:	89 c1                	mov    %eax,%ecx
     d0d:	ba 4c 02 00 00       	mov    $0x24c,%edx
     d12:	48 c7 c6 00 00 00 00 	mov    $0x0,%rsi
			d15: R_X86_64_32S	.rodata+0x40
     d19:	48 c7 c7 00 00 00 00 	mov    $0x0,%rdi
			d1c: R_X86_64_32S	.rodata.str1.8+0x790
     d20:	31 c0                	xor    %eax,%eax
     d22:	e8 00 00 00 00       	callq  d27 <afs_ctr+0x5d7>
			d23: R_X86_64_PC32	printk-0x4
/home/austen/programming/dm-afs/src/dm_afs.c:614
    kfree(context->afs_ptr_blocks);
     d27:	49 8b bc 24 60 b0 03 	mov    0x3b060(%r12),%rdi
     d2e:	00 
     d2f:	e8 00 00 00 00       	callq  d34 <afs_ctr+0x5e4>
			d30: R_X86_64_PC32	kfree-0x4
/home/austen/programming/dm-afs/src/dm_afs.c:615
    vfree(context->afs_map);
     d34:	49 8b bc 24 50 b0 03 	mov    0x3b050(%r12),%rdi
     d3b:	00 
     d3c:	e8 00 00 00 00       	callq  d41 <afs_ctr+0x5f1>
			d3d: R_X86_64_PC32	vfree-0x4
/home/austen/programming/dm-afs/src/dm_afs.c:618
    bit_vector_free(context->vector.vector);
     d41:	49 8b bc 24 08 21 00 	mov    0x2108(%r12),%rdi
     d48:	00 
     d49:	e8 00 00 00 00       	callq  d4e <afs_ctr+0x5fe>
			d4a: R_X86_64_PC32	bit_vector_free-0x4
/home/austen/programming/dm-afs/src/dm_afs.c:621
    vfree(fs->block_list);
     d4e:	49 8b bc 24 00 20 00 	mov    0x2000(%r12),%rdi
     d55:	00 
     d56:	e8 00 00 00 00       	callq  d5b <afs_ctr+0x60b>
			d57: R_X86_64_PC32	vfree-0x4
/home/austen/programming/dm-afs/src/dm_afs.c:624
    dm_put_device(ti, context->passive_dev);
     d5b:	49 8b 34 24          	mov    (%r12),%rsi
     d5f:	48 8b 7d c8          	mov    -0x38(%rbp),%rdi
     d63:	e8 00 00 00 00       	callq  d68 <afs_ctr+0x618>
			d64: R_X86_64_PC32	dm_put_device-0x4
/home/austen/programming/dm-afs/src/dm_afs.c:627
    kfree(context);
     d68:	4c 89 e7             	mov    %r12,%rdi
     d6b:	e8 00 00 00 00       	callq  d70 <afs_ctr+0x620>
			d6c: R_X86_64_PC32	kfree-0x4
/home/austen/programming/dm-afs/src/dm_afs.c:630
    kfree(context);
     d70:	4c 89 e7             	mov    %r12,%rdi
     d73:	e8 00 00 00 00       	callq  d78 <afs_ctr+0x628>
			d74: R_X86_64_PC32	kfree-0x4
     d78:	e9 ee fd ff ff       	jmpq   b6b <afs_ctr+0x41b>
/home/austen/programming/dm-afs/src/dm_afs.c:591 (discriminator 1)
    afs_action(!IS_ERR(context->flight_wq), ret = PTR_ERR(context->flight_wq), fwq_err, "could not create fwq [%d]", ret);
     d7d:	89 c1                	mov    %eax,%ecx
     d7f:	89 c3                	mov    %eax,%ebx
     d81:	ba 4f 02 00 00       	mov    $0x24f,%edx
     d86:	48 c7 c6 00 00 00 00 	mov    $0x0,%rsi
			d89: R_X86_64_32S	.rodata+0x40
     d8d:	48 c7 c7 00 00 00 00 	mov    $0x0,%rdi
			d90: R_X86_64_32S	.rodata.str1.8+0x7c8
     d94:	31 c0                	xor    %eax,%eax
     d96:	e8 00 00 00 00       	callq  d9b <afs_ctr+0x64b>
			d97: R_X86_64_PC32	printk-0x4
/home/austen/programming/dm-afs/src/dm_afs.c:611 (discriminator 1)
    destroy_workqueue(context->ground_wq);
     d9b:	49 8b bc 24 00 b0 03 	mov    0x3b000(%r12),%rdi
     da2:	00 
     da3:	e8 00 00 00 00       	callq  da8 <afs_ctr+0x658>
			da4: R_X86_64_PC32	destroy_workqueue-0x4
     da8:	e9 7a ff ff ff       	jmpq   d27 <afs_ctr+0x5d7>
detect_fs():
/home/austen/programming/dm-afs/src/dm_afs.c:48
    kfree(page);
     dad:	e8 00 00 00 00       	callq  db2 <afs_ctr+0x662>
			dae: R_X86_64_PC32	kfree-0x4
/home/austen/programming/dm-afs/src/dm_afs.c:50
    afs_debug("detected %d", ret);
     db2:	44 8b 05 00 00 00 00 	mov    0x0(%rip),%r8d        # db9 <afs_ctr+0x669>
			db5: R_X86_64_PC32	afs_debug_mode-0x4
     db9:	45 85 c0             	test   %r8d,%r8d
     dbc:	0f 84 2d fc ff ff    	je     9ef <afs_ctr+0x29f>
     dc2:	31 c0                	xor    %eax,%eax
     dc4:	b9 02 00 00 00       	mov    $0x2,%ecx
     dc9:	ba 32 00 00 00       	mov    $0x32,%edx
     dce:	48 c7 c6 00 00 00 00 	mov    $0x0,%rsi
			dd1: R_X86_64_32S	.rodata+0x10
     dd5:	48 c7 c7 00 00 00 00 	mov    $0x0,%rdi
			dd8: R_X86_64_32S	.rodata.str1.8+0x878
     ddc:	e8 00 00 00 00       	callq  de1 <afs_ctr+0x691>
			ddd: R_X86_64_PC32	printk-0x4
afs_ctr():
/home/austen/programming/dm-afs/src/dm_afs.c:534
        afs_debug("detected NTFS");
     de1:	8b 05 00 00 00 00    	mov    0x0(%rip),%eax        # de7 <afs_ctr+0x697>
			de3: R_X86_64_PC32	afs_debug_mode-0x4
     de7:	85 c0                	test   %eax,%eax
     de9:	0f 84 00 fc ff ff    	je     9ef <afs_ctr+0x29f>
/home/austen/programming/dm-afs/src/dm_afs.c:534 (discriminator 1)
     def:	ba 16 02 00 00       	mov    $0x216,%edx
     df4:	48 c7 c6 00 00 00 00 	mov    $0x0,%rsi
			df7: R_X86_64_32S	.rodata+0x40
     dfb:	48 c7 c7 00 00 00 00 	mov    $0x0,%rdi
			dfe: R_X86_64_32S	.rodata.str1.8+0x680
     e02:	31 c0                	xor    %eax,%eax
     e04:	e8 00 00 00 00       	callq  e09 <afs_ctr+0x6b9>
			e05: R_X86_64_PC32	printk-0x4
     e09:	e9 e1 fb ff ff       	jmpq   9ef <afs_ctr+0x29f>
parse_afs_args():
/home/austen/programming/dm-afs/src/dm_afs.c:96
            afs_assert(0, err, "unknown argument");
     e0e:	ba 60 00 00 00       	mov    $0x60,%edx
     e13:	48 c7 c6 00 00 00 00 	mov    $0x0,%rsi
			e16: R_X86_64_32S	.rodata+0x20
     e1a:	48 c7 c7 00 00 00 00 	mov    $0x0,%rdi
			e1d: R_X86_64_32S	.rodata.str1.8+0x3d0
     e21:	31 c0                	xor    %eax,%eax
     e23:	e8 00 00 00 00       	callq  e28 <afs_ctr+0x6d8>
			e24: R_X86_64_PC32	printk-0x4
afs_ctr():
/home/austen/programming/dm-afs/src/dm_afs.c:517 (discriminator 1)
    afs_assert(!ret, args_err, "unable to parse arguments");
     e28:	ba 05 02 00 00       	mov    $0x205,%edx
     e2d:	48 c7 c6 00 00 00 00 	mov    $0x0,%rsi
			e30: R_X86_64_32S	.rodata+0x40
     e34:	48 c7 c7 00 00 00 00 	mov    $0x0,%rdi
			e37: R_X86_64_32S	.rodata.str1.8+0x578
     e3b:	31 c0                	xor    %eax,%eax
     e3d:	bb ea ff ff ff       	mov    $0xffffffea,%ebx
     e42:	e8 00 00 00 00       	callq  e47 <afs_ctr+0x6f7>
			e43: R_X86_64_PC32	printk-0x4
     e47:	e9 1c ff ff ff       	jmpq   d68 <afs_ctr+0x618>
parse_afs_args():
/home/austen/programming/dm-afs/src/dm_afs.c:90
            afs_assert(++i < argc, err, "missing value [entropy source]");
     e4c:	ba 5a 00 00 00       	mov    $0x5a,%edx
     e51:	48 c7 c6 00 00 00 00 	mov    $0x0,%rsi
			e54: R_X86_64_32S	.rodata+0x20
     e58:	48 c7 c7 00 00 00 00 	mov    $0x0,%rdi
			e5b: R_X86_64_32S	.rodata.str1.8+0x358
     e5f:	e8 00 00 00 00       	callq  e64 <afs_ctr+0x714>
			e60: R_X86_64_PC32	printk-0x4
     e64:	eb c2                	jmp    e28 <afs_ctr+0x6d8>
/home/austen/programming/dm-afs/src/dm_afs.c:93
            afs_assert(++i < argc, err, "missing value [shadow passphrase]");
     e66:	ba 5d 00 00 00       	mov    $0x5d,%edx
     e6b:	48 c7 c6 00 00 00 00 	mov    $0x0,%rsi
			e6e: R_X86_64_32S	.rodata+0x20
     e72:	48 c7 c7 00 00 00 00 	mov    $0x0,%rdi
			e75: R_X86_64_32S	.rodata.str1.8+0x390
     e79:	e8 00 00 00 00       	callq  e7e <afs_ctr+0x72e>
			e7a: R_X86_64_PC32	printk-0x4
     e7e:	eb a8                	jmp    e28 <afs_ctr+0x6d8>
/home/austen/programming/dm-afs/src/dm_afs.c:75
    afs_assert(argc >= 3, err, "not enough arguments");
     e80:	ba 4b 00 00 00       	mov    $0x4b,%edx
     e85:	48 c7 c6 00 00 00 00 	mov    $0x0,%rsi
			e88: R_X86_64_32S	.rodata+0x20
     e8c:	48 c7 c7 00 00 00 00 	mov    $0x0,%rdi
			e8f: R_X86_64_32S	.rodata.str1.8+0x278
     e93:	31 c0                	xor    %eax,%eax
     e95:	e8 00 00 00 00       	callq  e9a <afs_ctr+0x74a>
			e96: R_X86_64_PC32	printk-0x4
     e9a:	eb 8c                	jmp    e28 <afs_ctr+0x6d8>
afs_ctr():
/home/austen/programming/dm-afs/src/dm_afs.c:510 (discriminator 1)
    afs_action(context, ret = -ENOMEM, err, "kmalloc failure [%d]", ret);
     e9c:	b9 f4 ff ff ff       	mov    $0xfffffff4,%ecx
     ea1:	ba fe 01 00 00       	mov    $0x1fe,%edx
     ea6:	48 c7 c6 00 00 00 00 	mov    $0x0,%rsi
			ea9: R_X86_64_32S	.rodata+0x40
     ead:	48 c7 c7 00 00 00 00 	mov    $0x0,%rdi
			eb0: R_X86_64_32S	.rodata.str1.8+0x248
     eb4:	31 c0                	xor    %eax,%eax
     eb6:	bb f4 ff ff ff       	mov    $0xfffffff4,%ebx
     ebb:	e8 00 00 00 00       	callq  ec0 <afs_ctr+0x770>
			ebc: R_X86_64_PC32	printk-0x4
     ec0:	e9 a6 fc ff ff       	jmpq   b6b <afs_ctr+0x41b>
/home/austen/programming/dm-afs/src/dm_afs.c:503 (discriminator 1)
    afs_action(instance_size >= AFS_MIN_SIZE, ret = -EINVAL, err, "instance too small [%llu]", instance_size);
     ec5:	4c 89 f1             	mov    %r14,%rcx
     ec8:	ba f7 01 00 00       	mov    $0x1f7,%edx
     ecd:	48 c7 c6 00 00 00 00 	mov    $0x0,%rsi
			ed0: R_X86_64_32S	.rodata+0x40
     ed4:	48 c7 c7 00 00 00 00 	mov    $0x0,%rdi
			ed7: R_X86_64_32S	.rodata.str1.8+0x210
     edb:	31 c0                	xor    %eax,%eax
     edd:	bb ea ff ff ff       	mov    $0xffffffea,%ebx
     ee2:	e8 00 00 00 00       	callq  ee7 <afs_ctr+0x797>
			ee3: R_X86_64_PC32	printk-0x4
     ee7:	e9 7f fc ff ff       	jmpq   b6b <afs_ctr+0x41b>
parse_afs_args():
/home/austen/programming/dm-afs/src/dm_afs.c:121
        afs_assert(0, err, "unknown type of instance chosen");
     eec:	ba 79 00 00 00       	mov    $0x79,%edx
     ef1:	48 c7 c6 00 00 00 00 	mov    $0x0,%rsi
			ef4: R_X86_64_32S	.rodata+0x20
     ef8:	48 c7 c7 00 00 00 00 	mov    $0x0,%rdi
			efb: R_X86_64_32S	.rodata.str1.8+0x538
     eff:	31 c0                	xor    %eax,%eax
     f01:	e8 00 00 00 00       	callq  f06 <afs_ctr+0x7b6>
			f02: R_X86_64_PC32	printk-0x4
     f06:	e9 1d ff ff ff       	jmpq   e28 <afs_ctr+0x6d8>
/home/austen/programming/dm-afs/src/dm_afs.c:116
        afs_assert(args->entropy_dir[0] != 0, err, "entropy source not provided");
     f0b:	ba 74 00 00 00       	mov    $0x74,%edx
     f10:	48 c7 c6 00 00 00 00 	mov    $0x0,%rsi
			f13: R_X86_64_32S	.rodata+0x20
     f17:	48 c7 c7 00 00 00 00 	mov    $0x0,%rdi
			f1a: R_X86_64_32S	.rodata.str1.8+0x458
     f1e:	31 c0                	xor    %eax,%eax
     f20:	e8 00 00 00 00       	callq  f25 <afs_ctr+0x7d5>
			f21: R_X86_64_PC32	printk-0x4
     f25:	e9 fe fe ff ff       	jmpq   e28 <afs_ctr+0x6d8>
/home/austen/programming/dm-afs/src/dm_afs.c:117
        afs_assert(args->shadow_passphrase[0] != 0, err, "shadow passphrase not provided");
     f2a:	ba 75 00 00 00       	mov    $0x75,%edx
     f2f:	48 c7 c6 00 00 00 00 	mov    $0x0,%rsi
			f32: R_X86_64_32S	.rodata+0x20
     f36:	48 c7 c7 00 00 00 00 	mov    $0x0,%rdi
			f39: R_X86_64_32S	.rodata.str1.8+0x500
     f3d:	31 c0                	xor    %eax,%eax
     f3f:	e8 00 00 00 00       	callq  f44 <afs_ctr+0x7f4>
			f40: R_X86_64_PC32	printk-0x4
     f44:	e9 df fe ff ff       	jmpq   e28 <afs_ctr+0x6d8>
afs_ctr():
/home/austen/programming/dm-afs/src/dm_afs.c:522 (discriminator 1)
    afs_assert(!ret, args_err, "could not find given disk [%s]", args->passive_dev);
     f49:	48 8b 4d c0          	mov    -0x40(%rbp),%rcx
     f4d:	ba 0a 02 00 00       	mov    $0x20a,%edx
     f52:	48 c7 c6 00 00 00 00 	mov    $0x0,%rsi
			f55: R_X86_64_32S	.rodata+0x40
     f59:	48 c7 c7 00 00 00 00 	mov    $0x0,%rdi
			f5c: R_X86_64_32S	.rodata.str1.8+0x5b0
     f60:	31 c0                	xor    %eax,%eax
     f62:	e8 00 00 00 00       	callq  f67 <afs_ctr+0x817>
			f63: R_X86_64_PC32	printk-0x4
     f67:	e9 fc fd ff ff       	jmpq   d68 <afs_ctr+0x618>
detect_fs():
/home/austen/programming/dm-afs/src/dm_afs.c:32
    afs_action(page, ret = -ENOMEM, alloc_err, "could not allocate page [%d]", ret);
     f6c:	b9 f4 ff ff ff       	mov    $0xfffffff4,%ecx
     f71:	ba 20 00 00 00       	mov    $0x20,%edx
     f76:	48 c7 c6 00 00 00 00 	mov    $0x0,%rsi
			f79: R_X86_64_32S	.rodata+0x10
     f7d:	48 c7 c7 00 00 00 00 	mov    $0x0,%rdi
			f80: R_X86_64_32S	.rodata.str1.8+0x5e8
     f84:	31 c0                	xor    %eax,%eax
     f86:	e8 00 00 00 00       	callq  f8b <afs_ctr+0x83b>
			f87: R_X86_64_PC32	printk-0x4
     f8b:	e9 5f fa ff ff       	jmpq   9ef <afs_ctr+0x29f>
parse_afs_args():
/home/austen/programming/dm-afs/src/dm_afs.c:79
    afs_assert(!kstrtou8(argv[TYPE], BASE_10, &args->instance_type), err, "instance type not integer");
     f90:	ba 4f 00 00 00       	mov    $0x4f,%edx
     f95:	48 c7 c6 00 00 00 00 	mov    $0x0,%rsi
			f98: R_X86_64_32S	.rodata+0x20
     f9c:	48 c7 c7 00 00 00 00 	mov    $0x0,%rdi
			f9f: R_X86_64_32S	.rodata.str1.8+0x2a8
     fa3:	31 c0                	xor    %eax,%eax
     fa5:	e8 00 00 00 00       	callq  faa <afs_ctr+0x85a>
			fa6: R_X86_64_PC32	printk-0x4
     faa:	e9 79 fe ff ff       	jmpq   e28 <afs_ctr+0x6d8>
/home/austen/programming/dm-afs/src/dm_afs.c:82
    afs_debug("Type: %d", args->instance_type);
     faf:	41 0f b6 8c 24 00 21 	movzbl 0x2100(%r12),%ecx
     fb6:	00 00 
     fb8:	31 c0                	xor    %eax,%eax
     fba:	ba 52 00 00 00       	mov    $0x52,%edx
     fbf:	48 c7 c6 00 00 00 00 	mov    $0x0,%rsi
			fc2: R_X86_64_32S	.rodata+0x20
     fc6:	48 c7 c7 00 00 00 00 	mov    $0x0,%rdi
			fc9: R_X86_64_32S	.rodata.str1.8+0x2e0
     fcd:	e8 00 00 00 00       	callq  fd2 <afs_ctr+0x882>
			fce: R_X86_64_PC32	printk-0x4
/home/austen/programming/dm-afs/src/dm_afs.c:83
    afs_debug("Passphrase: %s", args->passphrase);
     fd2:	83 3d 00 00 00 00 00 	cmpl   $0x0,0x0(%rip)        # fd9 <afs_ctr+0x889>
			fd4: R_X86_64_PC32	afs_debug_mode-0x5
     fd9:	0f 84 5e f8 ff ff    	je     83d <afs_ctr+0xed>
     fdf:	31 c0                	xor    %eax,%eax
     fe1:	4c 89 f1             	mov    %r14,%rcx
     fe4:	ba 53 00 00 00       	mov    $0x53,%edx
     fe9:	48 c7 c6 00 00 00 00 	mov    $0x0,%rsi
			fec: R_X86_64_32S	.rodata+0x20
     ff0:	48 c7 c7 00 00 00 00 	mov    $0x0,%rdi
			ff3: R_X86_64_32S	.rodata.str1.8+0x308
     ff7:	e8 00 00 00 00       	callq  ffc <afs_ctr+0x8ac>
			ff8: R_X86_64_PC32	printk-0x4
/home/austen/programming/dm-afs/src/dm_afs.c:84
    afs_debug("Device: %s", args->passive_dev);
     ffc:	83 3d 00 00 00 00 00 	cmpl   $0x0,0x0(%rip)        # 1003 <afs_ctr+0x8b3>
			ffe: R_X86_64_PC32	afs_debug_mode-0x5
    1003:	0f 84 34 f8 ff ff    	je     83d <afs_ctr+0xed>
    1009:	48 8b 4d c0          	mov    -0x40(%rbp),%rcx
    100d:	ba 54 00 00 00       	mov    $0x54,%edx
    1012:	48 c7 c6 00 00 00 00 	mov    $0x0,%rsi
			1015: R_X86_64_32S	.rodata+0x20
    1019:	48 c7 c7 00 00 00 00 	mov    $0x0,%rdi
			101c: R_X86_64_32S	.rodata.str1.8+0x330
    1020:	31 c0                	xor    %eax,%eax
    1022:	e8 00 00 00 00       	callq  1027 <afs_ctr+0x8d7>
			1023: R_X86_64_PC32	printk-0x4
    1027:	e9 11 f8 ff ff       	jmpq   83d <afs_ctr+0xed>
afs_ctr():
/home/austen/programming/dm-afs/src/dm_afs.c:601 (discriminator 1)
    afs_assert(!ret, encode_err, "could not initialize encoding library [%d]", ret);
    102c:	89 c1                	mov    %eax,%ecx
    102e:	ba 59 02 00 00       	mov    $0x259,%edx
    1033:	48 c7 c6 00 00 00 00 	mov    $0x0,%rsi
			1036: R_X86_64_32S	.rodata+0x40
    103a:	48 c7 c7 00 00 00 00 	mov    $0x0,%rdi
			103d: R_X86_64_32S	.rodata.str1.8+0x800
    1041:	31 c0                	xor    %eax,%eax
    1043:	e8 00 00 00 00       	callq  1048 <afs_ctr+0x8f8>
			1044: R_X86_64_PC32	printk-0x4
    1048:	e9 23 fd ff ff       	jmpq   d70 <afs_ctr+0x620>
parse_afs_args():
/home/austen/programming/dm-afs/src/dm_afs.c:111
        afs_assert(args->entropy_dir[0] == 0, err, "entropy source provided");
    104d:	ba 6f 00 00 00       	mov    $0x6f,%edx
    1052:	48 c7 c6 00 00 00 00 	mov    $0x0,%rsi
			1055: R_X86_64_32S	.rodata+0x20
    1059:	48 c7 c7 00 00 00 00 	mov    $0x0,%rdi
			105c: R_X86_64_32S	.rodata.str1.8+0x4c8
    1060:	31 c0                	xor    %eax,%eax
    1062:	e8 00 00 00 00       	callq  1067 <afs_ctr+0x917>
			1063: R_X86_64_PC32	printk-0x4
    1067:	e9 bc fd ff ff       	jmpq   e28 <afs_ctr+0x6d8>
/home/austen/programming/dm-afs/src/dm_afs.c:99
    afs_debug("Entropy: %s", args->entropy_dir);
    106c:	49 8d 8c 24 c0 20 00 	lea    0x20c0(%r12),%rcx
    1073:	00 
    1074:	31 c0                	xor    %eax,%eax
    1076:	ba 63 00 00 00       	mov    $0x63,%edx
    107b:	48 c7 c6 00 00 00 00 	mov    $0x0,%rsi
			107e: R_X86_64_32S	.rodata+0x20
    1082:	48 c7 c7 00 00 00 00 	mov    $0x0,%rdi
			1085: R_X86_64_32S	.rodata.str1.8+0x400
    1089:	e8 00 00 00 00       	callq  108e <afs_ctr+0x93e>
			108a: R_X86_64_PC32	printk-0x4
/home/austen/programming/dm-afs/src/dm_afs.c:100
    afs_debug("Shadow Passphrase: %s", args->shadow_passphrase);
    108e:	83 3d 00 00 00 00 00 	cmpl   $0x0,0x0(%rip)        # 1095 <afs_ctr+0x945>
			1090: R_X86_64_PC32	afs_debug_mode-0x5
    1095:	0f 84 67 f8 ff ff    	je     902 <afs_ctr+0x1b2>
    109b:	49 8d 8c 24 60 20 00 	lea    0x2060(%r12),%rcx
    10a2:	00 
    10a3:	ba 64 00 00 00       	mov    $0x64,%edx
    10a8:	48 c7 c6 00 00 00 00 	mov    $0x0,%rsi
			10ab: R_X86_64_32S	.rodata+0x20
    10af:	48 c7 c7 00 00 00 00 	mov    $0x0,%rdi
			10b2: R_X86_64_32S	.rodata.str1.8+0x428
    10b6:	31 c0                	xor    %eax,%eax
    10b8:	e8 00 00 00 00       	callq  10bd <afs_ctr+0x96d>
			10b9: R_X86_64_PC32	printk-0x4
    10bd:	e9 40 f8 ff ff       	jmpq   902 <afs_ctr+0x1b2>
detect_fs():
/home/austen/programming/dm-afs/src/dm_afs.c:34
    afs_assert(!ret, read_err, "could not read page [%d]", ret);
    10c2:	0f be c8             	movsbl %al,%ecx
    10c5:	ba 22 00 00 00       	mov    $0x22,%edx
    10ca:	48 c7 c6 00 00 00 00 	mov    $0x0,%rsi
			10cd: R_X86_64_32S	.rodata+0x10
    10d1:	48 c7 c7 00 00 00 00 	mov    $0x0,%rdi
			10d4: R_X86_64_32S	.rodata.str1.8+0x620
    10d8:	31 c0                	xor    %eax,%eax
    10da:	e8 00 00 00 00       	callq  10df <afs_ctr+0x98f>
			10db: R_X86_64_PC32	printk-0x4
/home/austen/programming/dm-afs/src/dm_afs.c:54
    kfree(page);
    10df:	48 89 df             	mov    %rbx,%rdi
    10e2:	e8 00 00 00 00       	callq  10e7 <afs_ctr+0x997>
			10e3: R_X86_64_PC32	kfree-0x4
    10e7:	e9 03 f9 ff ff       	jmpq   9ef <afs_ctr+0x29f>
/home/austen/programming/dm-afs/src/dm_afs.c:50
    afs_debug("detected %d", ret);
    10ec:	31 c9                	xor    %ecx,%ecx
    10ee:	31 c0                	xor    %eax,%eax
    10f0:	ba 32 00 00 00       	mov    $0x32,%edx
    10f5:	48 c7 c6 00 00 00 00 	mov    $0x0,%rsi
			10f8: R_X86_64_32S	.rodata+0x10
    10fc:	48 c7 c7 00 00 00 00 	mov    $0x0,%rdi
			10ff: R_X86_64_32S	.rodata.str1.8+0x878
    1103:	e8 00 00 00 00       	callq  1108 <afs_ctr+0x9b8>
			1104: R_X86_64_PC32	printk-0x4
afs_ctr():
/home/austen/programming/dm-afs/src/dm_afs.c:530
        afs_debug("detected FAT32");
    1108:	83 3d 00 00 00 00 00 	cmpl   $0x0,0x0(%rip)        # 110f <afs_ctr+0x9bf>
			110a: R_X86_64_PC32	afs_debug_mode-0x5
    110f:	0f 84 da f8 ff ff    	je     9ef <afs_ctr+0x29f>
/home/austen/programming/dm-afs/src/dm_afs.c:530 (discriminator 1)
    1115:	ba 12 02 00 00       	mov    $0x212,%edx
    111a:	48 c7 c6 00 00 00 00 	mov    $0x0,%rsi
			111d: R_X86_64_32S	.rodata+0x40
    1121:	48 c7 c7 00 00 00 00 	mov    $0x0,%rdi
			1124: R_X86_64_32S	.rodata.str1.8+0x658
    1128:	31 c0                	xor    %eax,%eax
    112a:	e8 00 00 00 00       	callq  112f <afs_ctr+0x9df>
			112b: R_X86_64_PC32	printk-0x4
    112f:	e9 bb f8 ff ff       	jmpq   9ef <afs_ctr+0x29f>
/home/austen/programming/dm-afs/src/dm_afs.c:563 (discriminator 1)
    afs_action(context->vector.vector, ret = -ENOMEM, vec_err, "could not allocate allocation vector");
    1134:	ba 33 02 00 00       	mov    $0x233,%edx
    1139:	48 c7 c6 00 00 00 00 	mov    $0x0,%rsi
			113c: R_X86_64_32S	.rodata+0x40
    1140:	48 c7 c7 00 00 00 00 	mov    $0x0,%rdi
			1143: R_X86_64_32S	.rodata.str1.8+0x6d0
    1147:	e8 00 00 00 00       	callq  114c <afs_ctr+0x9fc>
			1148: R_X86_64_PC32	printk-0x4
    114c:	bb f4 ff ff ff       	mov    $0xfffffff4,%ebx
    1151:	e9 f8 fb ff ff       	jmpq   d4e <afs_ctr+0x5fe>
/home/austen/programming/dm-afs/src/dm_afs.c:606 (discriminator 1)
    afs_debug("constructor completed");
    1156:	ba 5e 02 00 00       	mov    $0x25e,%edx
    115b:	48 c7 c6 00 00 00 00 	mov    $0x0,%rsi
			115e: R_X86_64_32S	.rodata+0x40
    1162:	48 c7 c7 00 00 00 00 	mov    $0x0,%rdi
			1165: R_X86_64_32S	.rodata.str1.8+0x848
    1169:	31 c0                	xor    %eax,%eax
    116b:	e8 00 00 00 00       	callq  1170 <afs_ctr+0xa20>
			116c: R_X86_64_PC32	printk-0x4
    1170:	e9 ee f9 ff ff       	jmpq   b63 <afs_ctr+0x413>
parse_afs_args():
/home/austen/programming/dm-afs/src/dm_afs.c:106
        afs_assert(args->entropy_dir[0] != 0, err, "entropy source not provided");
    1175:	ba 6a 00 00 00       	mov    $0x6a,%edx
    117a:	48 c7 c6 00 00 00 00 	mov    $0x0,%rsi
			117d: R_X86_64_32S	.rodata+0x20
    1181:	48 c7 c7 00 00 00 00 	mov    $0x0,%rdi
			1184: R_X86_64_32S	.rodata.str1.8+0x458
    1188:	31 c0                	xor    %eax,%eax
    118a:	e8 00 00 00 00       	callq  118f <afs_ctr+0xa3f>
			118b: R_X86_64_PC32	printk-0x4
    118f:	e9 94 fc ff ff       	jmpq   e28 <afs_ctr+0x6d8>
afs_ctr():
/home/austen/programming/dm-afs/src/dm_afs.c:578 (discriminator 1)
        afs_assert(!ret, sb_err, "could not find super block [%d]", ret);
    1194:	89 c1                	mov    %eax,%ecx
    1196:	ba 42 02 00 00       	mov    $0x242,%edx
    119b:	48 c7 c6 00 00 00 00 	mov    $0x0,%rsi
			119e: R_X86_64_32S	.rodata+0x40
    11a2:	48 c7 c7 00 00 00 00 	mov    $0x0,%rdi
			11a5: R_X86_64_32S	.rodata.str1.8+0x750
    11a9:	31 c0                	xor    %eax,%eax
    11ab:	e8 00 00 00 00       	callq  11b0 <afs_ctr+0xa60>
			11ac: R_X86_64_PC32	printk-0x4
    11b0:	e9 8c fb ff ff       	jmpq   d41 <afs_ctr+0x5f1>
    11b5:	90                   	nop
    11b6:	66 2e 0f 1f 84 00 00 	nopw   %cs:0x0(%rax,%rax,1)
    11bd:	00 00 00 

00000000000011c0 <cleanup_module>:
afs_exit():
/home/austen/programming/dm-afs/src/dm_afs.c:733
 * Unregisters the dm_afs target from the device-mapper
 * tree.
 */
static void
afs_exit(void)
{
    11c0:	e8 00 00 00 00       	callq  11c5 <cleanup_module+0x5>
			11c1: R_X86_64_PC32	__fentry__-0x4
    11c5:	55                   	push   %rbp
/home/austen/programming/dm-afs/src/dm_afs.c:734
    dm_unregister_target(&afs_target);
    11c6:	48 c7 c7 00 00 00 00 	mov    $0x0,%rdi
			11c9: R_X86_64_32S	.data+0x20
/home/austen/programming/dm-afs/src/dm_afs.c:733
{
    11cd:	48 89 e5             	mov    %rsp,%rbp
/home/austen/programming/dm-afs/src/dm_afs.c:734
    dm_unregister_target(&afs_target);
    11d0:	e8 00 00 00 00       	callq  11d5 <cleanup_module+0x15>
			11d1: R_X86_64_PC32	dm_unregister_target-0x4
/home/austen/programming/dm-afs/src/dm_afs.c:735
    afs_debug("unregistered dm_afs");
    11d5:	8b 05 00 00 00 00    	mov    0x0(%rip),%eax        # 11db <cleanup_module+0x1b>
			11d7: R_X86_64_PC32	afs_debug_mode-0x4
    11db:	85 c0                	test   %eax,%eax
    11dd:	75 02                	jne    11e1 <cleanup_module+0x21>
/home/austen/programming/dm-afs/src/dm_afs.c:736
}
    11df:	5d                   	pop    %rbp
    11e0:	c3                   	retq   
/home/austen/programming/dm-afs/src/dm_afs.c:735
    afs_debug("unregistered dm_afs");
    11e1:	ba df 02 00 00       	mov    $0x2df,%edx
    11e6:	48 c7 c6 00 00 00 00 	mov    $0x0,%rsi
			11e9: R_X86_64_32S	.rodata
    11ed:	48 c7 c7 00 00 00 00 	mov    $0x0,%rdi
			11f0: R_X86_64_32S	.rodata.str1.8+0x910
    11f4:	31 c0                	xor    %eax,%eax
    11f6:	e8 00 00 00 00       	callq  11fb <cleanup_module+0x3b>
			11f7: R_X86_64_PC32	printk-0x4
/home/austen/programming/dm-afs/src/dm_afs.c:736
}
    11fb:	5d                   	pop    %rbp
    11fc:	c3                   	retq   
    11fd:	0f 1f 00             	nopl   (%rax)

0000000000001200 <build_configuration>:
build_configuration():
/home/austen/programming/dm-afs/src/dm_afs_metadata.c:48
 * Build the configuration for an instance.
 * TODO build config for everything
 */
void
build_configuration(struct afs_private *context, uint8_t num_carrier_blocks, uint8_t num_entropy_blocks)
{
    1200:	e8 00 00 00 00       	callq  1205 <build_configuration+0x5>
			1201: R_X86_64_PC32	__fentry__-0x4
/home/austen/programming/dm-afs/src/dm_afs_metadata.c:53
    struct afs_config *config = &context->config;

    config->num_carrier_blocks = num_carrier_blocks;
    config->num_entropy_blocks = num_entropy_blocks;
    config->map_entry_sz = SHA128_SZ + ENTROPY_HASH_SZ + (sizeof(struct afs_map_tuple) * config->num_carrier_blocks);
    1205:	44 8d 04 b6          	lea    (%rsi,%rsi,4),%r8d
/home/austen/programming/dm-afs/src/dm_afs_metadata.c:54
    config->unused_space_per_block = (AFS_BLOCK_SIZE - SHA512_SZ) % config->map_entry_sz;
    1209:	b9 c0 0f 00 00       	mov    $0xfc0,%ecx
/home/austen/programming/dm-afs/src/dm_afs_metadata.c:52
    config->num_entropy_blocks = num_entropy_blocks;
    120e:	88 57 11             	mov    %dl,0x11(%rdi)
/home/austen/programming/dm-afs/src/dm_afs_metadata.c:54
    config->unused_space_per_block = (AFS_BLOCK_SIZE - SHA512_SZ) % config->map_entry_sz;
    1211:	89 c8                	mov    %ecx,%eax
/home/austen/programming/dm-afs/src/dm_afs_metadata.c:51
    config->num_carrier_blocks = num_carrier_blocks;
    1213:	40 88 77 10          	mov    %sil,0x10(%rdi)
/home/austen/programming/dm-afs/src/dm_afs_metadata.c:53
    config->map_entry_sz = SHA128_SZ + ENTROPY_HASH_SZ + (sizeof(struct afs_map_tuple) * config->num_carrier_blocks);
    1217:	47 8d 44 00 18       	lea    0x18(%r8,%r8,1),%r8d
/home/austen/programming/dm-afs/src/dm_afs_metadata.c:54
    config->unused_space_per_block = (AFS_BLOCK_SIZE - SHA512_SZ) % config->map_entry_sz;
    121c:	99                   	cltd   
/home/austen/programming/dm-afs/src/dm_afs_metadata.c:53
    config->map_entry_sz = SHA128_SZ + ENTROPY_HASH_SZ + (sizeof(struct afs_map_tuple) * config->num_carrier_blocks);
    121d:	44 88 47 12          	mov    %r8b,0x12(%rdi)
/home/austen/programming/dm-afs/src/dm_afs_metadata.c:54
    config->unused_space_per_block = (AFS_BLOCK_SIZE - SHA512_SZ) % config->map_entry_sz;
    1221:	45 0f b6 c0          	movzbl %r8b,%r8d
    1225:	41 f7 f8             	idiv   %r8d
    1228:	89 c1                	mov    %eax,%ecx
/home/austen/programming/dm-afs/src/dm_afs_metadata.c:55
    config->num_map_entries_per_block = (AFS_BLOCK_SIZE - SHA512_SZ) / config->map_entry_sz;
    122a:	88 47 14             	mov    %al,0x14(%rdi)
/home/austen/programming/dm-afs/src/dm_afs_metadata.c:56
    config->num_blocks = config->instance_size / AFS_BLOCK_SIZE;
    122d:	48 8b 47 28          	mov    0x28(%rdi),%rax
/home/austen/programming/dm-afs/src/dm_afs_metadata.c:54
    config->unused_space_per_block = (AFS_BLOCK_SIZE - SHA512_SZ) % config->map_entry_sz;
    1231:	88 57 13             	mov    %dl,0x13(%rdi)
/home/austen/programming/dm-afs/src/dm_afs_metadata.c:59

    // Kernel doesn't support floating point math. We need to round up.
    config->num_map_blocks = config->num_blocks / config->num_map_entries_per_block;
    1234:	0f b6 c9             	movzbl %cl,%ecx
    1237:	31 d2                	xor    %edx,%edx
/home/austen/programming/dm-afs/src/dm_afs_metadata.c:56
    config->num_blocks = config->instance_size / AFS_BLOCK_SIZE;
    1239:	48 c1 e8 0c          	shr    $0xc,%rax
    123d:	89 47 18             	mov    %eax,0x18(%rdi)
    1240:	f7 f1                	div    %ecx
/home/austen/programming/dm-afs/src/dm_afs_metadata.c:60
    config->num_map_blocks += (config->num_blocks % config->num_map_entries_per_block) ? 1 : 0;
    1242:	85 d2                	test   %edx,%edx
    1244:	0f 95 c2             	setne  %dl
    1247:	0f b6 d2             	movzbl %dl,%edx
    124a:	01 d0                	add    %edx,%eax
/home/austen/programming/dm-afs/src/dm_afs_metadata.c:65

    // We store a certain amount of pointers to map blocks in the SB itself.
    // So we need to adjust for that when calculating num_ptr_blocks. We also
    // exploit unsigned math.
    if ((config->num_map_blocks - NUM_MAP_BLKS_IN_SB) > config->num_map_blocks) {
    124c:	3d ce 03 00 00       	cmp    $0x3ce,%eax
/home/austen/programming/dm-afs/src/dm_afs_metadata.c:60
    config->num_map_blocks += (config->num_blocks % config->num_map_entries_per_block) ? 1 : 0;
    1251:	89 47 1c             	mov    %eax,0x1c(%rdi)
/home/austen/programming/dm-afs/src/dm_afs_metadata.c:65
    if ((config->num_map_blocks - NUM_MAP_BLKS_IN_SB) > config->num_map_blocks) {
    1254:	77 13                	ja     1269 <build_configuration+0x69>
/home/austen/programming/dm-afs/src/dm_afs_metadata.c:67
        // We can store everything in the SB itself.
        config->num_ptr_blocks = 0;
    1256:	c7 47 20 00 00 00 00 	movl   $0x0,0x20(%rdi)
/home/austen/programming/dm-afs/src/dm_afs_metadata.c:73
    } else {
        config->num_ptr_blocks = (config->num_map_blocks - NUM_MAP_BLKS_IN_SB) / NUM_MAP_BLKS_IN_PB;
        config->num_ptr_blocks += ((config->num_map_blocks - NUM_MAP_BLKS_IN_SB) % NUM_MAP_BLKS_IN_PB) ? 1 : 0;
    }
   
    afs_debug("Number carrier blocks per tuple: %u", config->num_carrier_blocks);
    125d:	8b 0d 00 00 00 00    	mov    0x0(%rip),%ecx        # 1263 <build_configuration+0x63>
			125f: R_X86_64_PC32	afs_debug_mode-0x4
    1263:	85 c9                	test   %ecx,%ecx
    1265:	75 31                	jne    1298 <build_configuration+0x98>
    1267:	f3 c3                	repz retq 
/home/austen/programming/dm-afs/src/dm_afs_metadata.c:69
        config->num_ptr_blocks = (config->num_map_blocks - NUM_MAP_BLKS_IN_SB) / NUM_MAP_BLKS_IN_PB;
    1269:	8d 88 31 fc ff ff    	lea    -0x3cf(%rax),%ecx
/home/austen/programming/dm-afs/src/dm_afs_metadata.c:70
        config->num_ptr_blocks += ((config->num_map_blocks - NUM_MAP_BLKS_IN_SB) % NUM_MAP_BLKS_IN_PB) ? 1 : 0;
    126f:	ba f7 91 41 01       	mov    $0x14191f7,%edx
    1274:	89 c8                	mov    %ecx,%eax
    1276:	f7 e2                	mul    %edx
    1278:	89 c8                	mov    %ecx,%eax
    127a:	29 d0                	sub    %edx,%eax
    127c:	d1 e8                	shr    %eax
    127e:	01 c2                	add    %eax,%edx
    1280:	c1 ea 09             	shr    $0x9,%edx
    1283:	69 c2 fb 03 00 00    	imul   $0x3fb,%edx,%eax
    1289:	39 c1                	cmp    %eax,%ecx
    128b:	0f 95 c0             	setne  %al
    128e:	0f b6 c0             	movzbl %al,%eax
    1291:	01 c2                	add    %eax,%edx
    1293:	89 57 20             	mov    %edx,0x20(%rdi)
    1296:	eb c5                	jmp    125d <build_configuration+0x5d>
/home/austen/programming/dm-afs/src/dm_afs_metadata.c:48 (discriminator 1)
{
    1298:	55                   	push   %rbp
/home/austen/programming/dm-afs/src/dm_afs_metadata.c:73 (discriminator 1)
    afs_debug("Number carrier blocks per tuple: %u", config->num_carrier_blocks);
    1299:	40 0f b6 ce          	movzbl %sil,%ecx
    129d:	31 c0                	xor    %eax,%eax
    129f:	48 c7 c6 00 00 00 00 	mov    $0x0,%rsi
			12a2: R_X86_64_32S	.rodata+0x160
/home/austen/programming/dm-afs/src/dm_afs_metadata.c:48 (discriminator 1)
{
    12a6:	48 89 e5             	mov    %rsp,%rbp
    12a9:	53                   	push   %rbx
    12aa:	52                   	push   %rdx
    12ab:	48 89 fb             	mov    %rdi,%rbx
/home/austen/programming/dm-afs/src/dm_afs_metadata.c:73 (discriminator 1)
    afs_debug("Number carrier blocks per tuple: %u", config->num_carrier_blocks);
    12ae:	ba 49 00 00 00       	mov    $0x49,%edx
    12b3:	48 c7 c7 00 00 00 00 	mov    $0x0,%rdi
			12b6: R_X86_64_32S	.rodata.str1.8+0x940
    12ba:	e8 00 00 00 00       	callq  12bf <build_configuration+0xbf>
			12bb: R_X86_64_PC32	printk-0x4
/home/austen/programming/dm-afs/src/dm_afs_metadata.c:74 (discriminator 1)
    afs_debug("Number entropy blocks per tuple: %u", config->num_entropy_blocks); 
    12bf:	83 3d 00 00 00 00 00 	cmpl   $0x0,0x0(%rip)        # 12c6 <build_configuration+0xc6>
			12c1: R_X86_64_PC32	afs_debug_mode-0x5
    12c6:	0f 84 9b 00 00 00    	je     1367 <build_configuration+0x167>
    12cc:	0f b6 4b 11          	movzbl 0x11(%rbx),%ecx
    12d0:	31 c0                	xor    %eax,%eax
    12d2:	ba 4a 00 00 00       	mov    $0x4a,%edx
    12d7:	48 c7 c6 00 00 00 00 	mov    $0x0,%rsi
			12da: R_X86_64_32S	.rodata+0x160
    12de:	48 c7 c7 00 00 00 00 	mov    $0x0,%rdi
			12e1: R_X86_64_32S	.rodata.str1.8+0x980
    12e5:	e8 00 00 00 00       	callq  12ea <build_configuration+0xea>
			12e6: R_X86_64_PC32	printk-0x4
/home/austen/programming/dm-afs/src/dm_afs_metadata.c:75 (discriminator 1)
    afs_debug("Map entry size: %u", config->map_entry_sz);
    12ea:	83 3d 00 00 00 00 00 	cmpl   $0x0,0x0(%rip)        # 12f1 <build_configuration+0xf1>
			12ec: R_X86_64_PC32	afs_debug_mode-0x5
    12f1:	74 53                	je     1346 <build_configuration+0x146>
    12f3:	0f b6 4b 12          	movzbl 0x12(%rbx),%ecx
    12f7:	31 c0                	xor    %eax,%eax
    12f9:	ba 4b 00 00 00       	mov    $0x4b,%edx
    12fe:	48 c7 c6 00 00 00 00 	mov    $0x0,%rsi
			1301: R_X86_64_32S	.rodata+0x160
    1305:	48 c7 c7 00 00 00 00 	mov    $0x0,%rdi
			1308: R_X86_64_32S	.rodata.str1.8+0x9c0
    130c:	e8 00 00 00 00       	callq  1311 <build_configuration+0x111>
			130d: R_X86_64_PC32	printk-0x4
/home/austen/programming/dm-afs/src/dm_afs_metadata.c:76 (discriminator 1)
    afs_debug("Unused: %u | Entries per block: %u", config->unused_space_per_block, config->num_map_entries_per_block);
    1311:	83 3d 00 00 00 00 00 	cmpl   $0x0,0x0(%rip)        # 1318 <build_configuration+0x118>
			1313: R_X86_64_PC32	afs_debug_mode-0x5
    1318:	74 2c                	je     1346 <build_configuration+0x146>
    131a:	0f b6 4b 13          	movzbl 0x13(%rbx),%ecx
    131e:	44 0f b6 43 14       	movzbl 0x14(%rbx),%r8d
    1323:	31 c0                	xor    %eax,%eax
    1325:	ba 4c 00 00 00       	mov    $0x4c,%edx
    132a:	48 c7 c6 00 00 00 00 	mov    $0x0,%rsi
			132d: R_X86_64_32S	.rodata+0x160
    1331:	48 c7 c7 00 00 00 00 	mov    $0x0,%rdi
			1334: R_X86_64_32S	.rodata.str1.8+0x9f0
    1338:	e8 00 00 00 00       	callq  133d <build_configuration+0x13d>
			1339: R_X86_64_PC32	printk-0x4
/home/austen/programming/dm-afs/src/dm_afs_metadata.c:77 (discriminator 1)
    afs_debug("Blocks: %u", config->num_blocks);
    133d:	83 3d 00 00 00 00 00 	cmpl   $0x0,0x0(%rip)        # 1344 <build_configuration+0x144>
			133f: R_X86_64_PC32	afs_debug_mode-0x5
    1344:	75 04                	jne    134a <build_configuration+0x14a>
/home/austen/programming/dm-afs/src/dm_afs_metadata.c:80
    afs_debug("Map blocks: %u", config->num_map_blocks);
    afs_debug("Ptr blocks: %u", config->num_ptr_blocks);
}
    1346:	58                   	pop    %rax
    1347:	5b                   	pop    %rbx
    1348:	5d                   	pop    %rbp
    1349:	c3                   	retq   
/home/austen/programming/dm-afs/src/dm_afs_metadata.c:77 (discriminator 1)
    afs_debug("Blocks: %u", config->num_blocks);
    134a:	8b 4b 18             	mov    0x18(%rbx),%ecx
    134d:	ba 4d 00 00 00       	mov    $0x4d,%edx
    1352:	48 c7 c6 00 00 00 00 	mov    $0x0,%rsi
			1355: R_X86_64_32S	.rodata+0x160
    1359:	48 c7 c7 00 00 00 00 	mov    $0x0,%rdi
			135c: R_X86_64_32S	.rodata.str1.8+0xa30
    1360:	31 c0                	xor    %eax,%eax
    1362:	e8 00 00 00 00       	callq  1367 <build_configuration+0x167>
			1363: R_X86_64_PC32	printk-0x4
/home/austen/programming/dm-afs/src/dm_afs_metadata.c:78
    afs_debug("Map blocks: %u", config->num_map_blocks);
    1367:	83 3d 00 00 00 00 00 	cmpl   $0x0,0x0(%rip)        # 136e <build_configuration+0x16e>
			1369: R_X86_64_PC32	afs_debug_mode-0x5
    136e:	74 d6                	je     1346 <build_configuration+0x146>
/home/austen/programming/dm-afs/src/dm_afs_metadata.c:78 (discriminator 1)
    1370:	8b 4b 1c             	mov    0x1c(%rbx),%ecx
    1373:	31 c0                	xor    %eax,%eax
    1375:	ba 4e 00 00 00       	mov    $0x4e,%edx
    137a:	48 c7 c6 00 00 00 00 	mov    $0x0,%rsi
			137d: R_X86_64_32S	.rodata+0x160
    1381:	48 c7 c7 00 00 00 00 	mov    $0x0,%rdi
			1384: R_X86_64_32S	.rodata.str1.8+0xa58
    1388:	e8 00 00 00 00       	callq  138d <build_configuration+0x18d>
			1389: R_X86_64_PC32	printk-0x4
/home/austen/programming/dm-afs/src/dm_afs_metadata.c:79 (discriminator 1)
    afs_debug("Ptr blocks: %u", config->num_ptr_blocks);
    138d:	83 3d 00 00 00 00 00 	cmpl   $0x0,0x0(%rip)        # 1394 <build_configuration+0x194>
			138f: R_X86_64_PC32	afs_debug_mode-0x5
    1394:	74 b0                	je     1346 <build_configuration+0x146>
    1396:	8b 4b 20             	mov    0x20(%rbx),%ecx
    1399:	ba 4f 00 00 00       	mov    $0x4f,%edx
    139e:	48 c7 c6 00 00 00 00 	mov    $0x0,%rsi
			13a1: R_X86_64_32S	.rodata+0x160
    13a5:	48 c7 c7 00 00 00 00 	mov    $0x0,%rdi
			13a8: R_X86_64_32S	.rodata.str1.8+0xa80
    13ac:	31 c0                	xor    %eax,%eax
    13ae:	e8 00 00 00 00       	callq  13b3 <build_configuration+0x1b3>
			13af: R_X86_64_PC32	printk-0x4
/home/austen/programming/dm-afs/src/dm_afs_metadata.c:80 (discriminator 1)
}
    13b3:	eb 91                	jmp    1346 <build_configuration+0x146>
    13b5:	90                   	nop
    13b6:	66 2e 0f 1f 84 00 00 	nopw   %cs:0x0(%rax,%rax,1)
    13bd:	00 00 00 

00000000000013c0 <afs_create_map>:
afs_create_map():
/home/austen/programming/dm-afs/src/dm_afs_metadata.c:88
 * Create the Artifice map and initialize it to
 * invalids.
 */
int
afs_create_map(struct afs_private *context)
{
    13c0:	e8 00 00 00 00       	callq  13c5 <afs_create_map+0x5>
			13c1: R_X86_64_PC32	__fentry__-0x4
    13c5:	55                   	push   %rbp
    13c6:	48 89 e5             	mov    %rsp,%rbp
    13c9:	41 57                	push   %r15
    13cb:	41 56                	push   %r14
    13cd:	41 55                	push   %r13
    13cf:	41 54                	push   %r12
    13d1:	49 89 ff             	mov    %rdi,%r15
    13d4:	53                   	push   %rbx
    13d5:	48 83 ec 08          	sub    $0x8,%rsp
/home/austen/programming/dm-afs/src/dm_afs_metadata.c:103
    map_entry_sz = config->map_entry_sz;
    num_blocks = config->num_blocks;
    num_carrier_blocks = config->num_carrier_blocks;

    // Allocate all required map_entries.
    map_entries = vmalloc(num_blocks * map_entry_sz);
    13d9:	44 0f b6 6f 12       	movzbl 0x12(%rdi),%r13d
/home/austen/programming/dm-afs/src/dm_afs_metadata.c:99
    num_blocks = config->num_blocks;
    13de:	8b 5f 18             	mov    0x18(%rdi),%ebx
/home/austen/programming/dm-afs/src/dm_afs_metadata.c:100
    num_carrier_blocks = config->num_carrier_blocks;
    13e1:	44 0f b6 77 10       	movzbl 0x10(%rdi),%r14d
/home/austen/programming/dm-afs/src/dm_afs_metadata.c:103
    map_entries = vmalloc(num_blocks * map_entry_sz);
    13e6:	44 89 ef             	mov    %r13d,%edi
    13e9:	0f af fb             	imul   %ebx,%edi
    13ec:	e8 00 00 00 00       	callq  13f1 <afs_create_map+0x31>
			13ed: R_X86_64_PC32	vmalloc-0x4
/home/austen/programming/dm-afs/src/dm_afs_metadata.c:104
    afs_action(map_entries, ret = -ENOMEM, done, "could not allocate map entries [%d]", ret);
    13f1:	48 85 c0             	test   %rax,%rax
    13f4:	0f 84 8f 00 00 00    	je     1489 <afs_create_map+0xc9>
/home/austen/programming/dm-afs/src/dm_afs_metadata.c:105
    afs_debug("allocated Artifice map");
    13fa:	44 8b 0d 00 00 00 00 	mov    0x0(%rip),%r9d        # 1401 <afs_create_map+0x41>
			13fd: R_X86_64_PC32	afs_debug_mode-0x4
    1401:	49 89 c4             	mov    %rax,%r12
    1404:	45 85 c9             	test   %r9d,%r9d
    1407:	0f 85 be 00 00 00    	jne    14cb <afs_create_map+0x10b>
/home/austen/programming/dm-afs/src/dm_afs_metadata.c:107

    for (i = 0; i < num_blocks; i++) {
    140d:	85 db                	test   %ebx,%ebx
    140f:	74 60                	je     1471 <afs_create_map+0xb1>
    1411:	41 8d 46 ff          	lea    -0x1(%r14),%eax
/home/austen/programming/dm-afs/src/dm_afs_metadata.c:88
{
    1415:	31 f6                	xor    %esi,%esi
    1417:	31 c9                	xor    %ecx,%ecx
    1419:	48 8d 7c 80 05       	lea    0x5(%rax,%rax,4),%rdi
    141e:	48 01 ff             	add    %rdi,%rdi
/home/austen/programming/dm-afs/src/dm_afs_metadata.c:108
        map_tuple = (struct afs_map_tuple *)(map_entries + (i * map_entry_sz));
    1421:	89 f0                	mov    %esi,%eax
    1423:	4c 01 e0             	add    %r12,%rax
/home/austen/programming/dm-afs/src/dm_afs_metadata.c:109
        for (j = 0; j < num_carrier_blocks; j++) {
    1426:	45 85 f6             	test   %r14d,%r14d
    1429:	74 22                	je     144d <afs_create_map+0x8d>
    142b:	48 8d 14 38          	lea    (%rax,%rdi,1),%rdx
/home/austen/programming/dm-afs/src/dm_afs_metadata.c:112 (discriminator 3)
            map_tuple->carrier_block_ptr = AFS_INVALID_BLOCK;
            map_tuple->entropy_block_ptr = AFS_INVALID_BLOCK;
            map_tuple->checksum = 0;
    142f:	45 31 c0             	xor    %r8d,%r8d
/home/austen/programming/dm-afs/src/dm_afs_metadata.c:110 (discriminator 3)
            map_tuple->carrier_block_ptr = AFS_INVALID_BLOCK;
    1432:	c7 00 ff ff ff ff    	movl   $0xffffffff,(%rax)
/home/austen/programming/dm-afs/src/dm_afs_metadata.c:111 (discriminator 3)
            map_tuple->entropy_block_ptr = AFS_INVALID_BLOCK;
    1438:	c7 40 04 ff ff ff ff 	movl   $0xffffffff,0x4(%rax)
/home/austen/programming/dm-afs/src/dm_afs_metadata.c:112 (discriminator 3)
            map_tuple->checksum = 0;
    143f:	66 44 89 40 08       	mov    %r8w,0x8(%rax)
/home/austen/programming/dm-afs/src/dm_afs_metadata.c:113 (discriminator 3)
            map_tuple += 1;
    1444:	48 83 c0 0a          	add    $0xa,%rax
/home/austen/programming/dm-afs/src/dm_afs_metadata.c:109 (discriminator 3)
        for (j = 0; j < num_carrier_blocks; j++) {
    1448:	48 39 d0             	cmp    %rdx,%rax
    144b:	75 e2                	jne    142f <afs_create_map+0x6f>
memset():
/usr/src/linux-headers-4.15.0-54-generic/./include/linux/string.h:329
    144d:	c5 f9 ef c0          	vpxor  %xmm0,%xmm0,%xmm0
afs_create_map():
/home/austen/programming/dm-afs/src/dm_afs_metadata.c:107
    for (i = 0; i < num_blocks; i++) {
    1451:	83 c1 01             	add    $0x1,%ecx
    1454:	44 01 ee             	add    %r13d,%esi
    1457:	39 cb                	cmp    %ecx,%ebx
memset():
/usr/src/linux-headers-4.15.0-54-generic/./include/linux/string.h:329
    1459:	48 c7 40 10 00 00 00 	movq   $0x0,0x10(%rax)
    1460:	00 
    1461:	c5 f8 11 00          	vmovups %xmm0,(%rax)
afs_create_map():
/home/austen/programming/dm-afs/src/dm_afs_metadata.c:107
    1465:	77 ba                	ja     1421 <afs_create_map+0x61>
/home/austen/programming/dm-afs/src/dm_afs_metadata.c:118
        }
        // map_tuple now points to the beginning of the hash and the entropy.
        memset(map_tuple, 0, SHA128_SZ + ENTROPY_HASH_SZ);
    }
    afs_debug("initialized Artifice map");
    1467:	8b 05 00 00 00 00    	mov    0x0(%rip),%eax        # 146d <afs_create_map+0xad>
			1469: R_X86_64_PC32	afs_debug_mode-0x4
    146d:	85 c0                	test   %eax,%eax
    146f:	75 3e                	jne    14af <afs_create_map+0xef>
/home/austen/programming/dm-afs/src/dm_afs_metadata.c:119
    context->afs_map = map_entries;
    1471:	4d 89 a7 50 b0 03 00 	mov    %r12,0x3b050(%r15)
/home/austen/programming/dm-afs/src/dm_afs_metadata.c:120
    ret = 0;
    1478:	31 c0                	xor    %eax,%eax
/home/austen/programming/dm-afs/src/dm_afs_metadata.c:124

done:
    return ret;
}
    147a:	48 83 c4 08          	add    $0x8,%rsp
    147e:	5b                   	pop    %rbx
    147f:	41 5c                	pop    %r12
    1481:	41 5d                	pop    %r13
    1483:	41 5e                	pop    %r14
    1485:	41 5f                	pop    %r15
    1487:	5d                   	pop    %rbp
    1488:	c3                   	retq   
/home/austen/programming/dm-afs/src/dm_afs_metadata.c:104 (discriminator 1)
    afs_action(map_entries, ret = -ENOMEM, done, "could not allocate map entries [%d]", ret);
    1489:	b9 f4 ff ff ff       	mov    $0xfffffff4,%ecx
    148e:	ba 68 00 00 00       	mov    $0x68,%edx
    1493:	48 c7 c6 00 00 00 00 	mov    $0x0,%rsi
			1496: R_X86_64_32S	.rodata+0x148
    149a:	48 c7 c7 00 00 00 00 	mov    $0x0,%rdi
			149d: R_X86_64_32S	.rodata.str1.8+0xaa8
    14a1:	31 c0                	xor    %eax,%eax
    14a3:	e8 00 00 00 00       	callq  14a8 <afs_create_map+0xe8>
			14a4: R_X86_64_PC32	printk-0x4
    14a8:	b8 f4 ff ff ff       	mov    $0xfffffff4,%eax
    14ad:	eb cb                	jmp    147a <afs_create_map+0xba>
/home/austen/programming/dm-afs/src/dm_afs_metadata.c:118 (discriminator 1)
    afs_debug("initialized Artifice map");
    14af:	ba 76 00 00 00       	mov    $0x76,%edx
    14b4:	48 c7 c6 00 00 00 00 	mov    $0x0,%rsi
			14b7: R_X86_64_32S	.rodata+0x148
    14bb:	48 c7 c7 00 00 00 00 	mov    $0x0,%rdi
			14be: R_X86_64_32S	.rodata.str1.8+0xb18
    14c2:	31 c0                	xor    %eax,%eax
    14c4:	e8 00 00 00 00       	callq  14c9 <afs_create_map+0x109>
			14c5: R_X86_64_PC32	printk-0x4
    14c9:	eb a6                	jmp    1471 <afs_create_map+0xb1>
/home/austen/programming/dm-afs/src/dm_afs_metadata.c:105 (discriminator 1)
    afs_debug("allocated Artifice map");
    14cb:	31 c0                	xor    %eax,%eax
    14cd:	ba 69 00 00 00       	mov    $0x69,%edx
    14d2:	48 c7 c6 00 00 00 00 	mov    $0x0,%rsi
			14d5: R_X86_64_32S	.rodata+0x148
    14d9:	48 c7 c7 00 00 00 00 	mov    $0x0,%rdi
			14dc: R_X86_64_32S	.rodata.str1.8+0xae8
    14e0:	e8 00 00 00 00       	callq  14e5 <afs_create_map+0x125>
			14e1: R_X86_64_PC32	printk-0x4
/home/austen/programming/dm-afs/src/dm_afs_metadata.c:107 (discriminator 1)
    for (i = 0; i < num_blocks; i++) {
    14e5:	85 db                	test   %ebx,%ebx
    14e7:	0f 85 24 ff ff ff    	jne    1411 <afs_create_map+0x51>
    14ed:	e9 75 ff ff ff       	jmpq   1467 <afs_create_map+0xa7>
    14f2:	0f 1f 40 00          	nopl   0x0(%rax)
    14f6:	66 2e 0f 1f 84 00 00 	nopw   %cs:0x0(%rax,%rax,1)
    14fd:	00 00 00 

0000000000001500 <afs_fill_map>:
afs_fill_map():
/home/austen/programming/dm-afs/src/dm_afs_metadata.c:132
 * Fill an Artifice map with values from the
 * metadata.
 */
int
afs_fill_map(struct afs_super_block *sb, struct afs_private *context)
{
    1500:	e8 00 00 00 00       	callq  1505 <afs_fill_map+0x5>
			1501: R_X86_64_PC32	__fentry__-0x4
    1505:	55                   	push   %rbp
kmalloc():
/usr/src/linux-headers-4.15.0-54-generic/./include/linux/slab.h:499
    1506:	ba 00 10 00 00       	mov    $0x1000,%edx
afs_fill_map():
/home/austen/programming/dm-afs/src/dm_afs_metadata.c:132
    150b:	48 89 e5             	mov    %rsp,%rbp
    150e:	41 57                	push   %r15
    1510:	41 56                	push   %r14
    1512:	41 55                	push   %r13
    1514:	41 54                	push   %r12
    1516:	53                   	push   %rbx
    1517:	48 89 f3             	mov    %rsi,%rbx
    151a:	48 83 ec 58          	sub    $0x58,%rsp
/home/austen/programming/dm-afs/src/dm_afs_metadata.c:147
    uint32_t next_block;
    uint32_t entries_read;
    uint32_t entries_left;
    uint32_t i, j;
    int ret = 0;
    uint32_t data_sector_offset = context->passive_fs.data_start_off;
    151e:	8b 86 14 20 00 00    	mov    0x2014(%rsi),%eax
/home/austen/programming/dm-afs/src/dm_afs_metadata.c:132
{
    1524:	48 89 7d 90          	mov    %rdi,-0x70(%rbp)
kmalloc():
/usr/src/linux-headers-4.15.0-54-generic/./include/linux/slab.h:499
    1528:	48 8b 3d 00 00 00 00 	mov    0x0(%rip),%rdi        # 152f <afs_fill_map+0x2f>
			152b: R_X86_64_PC32	kmalloc_caches+0x5c
afs_fill_map():
/home/austen/programming/dm-afs/src/dm_afs_metadata.c:152

    // Acquire the map.
    afs_map = context->afs_map;

    map_entry_sz = config->map_entry_sz;
    152f:	44 0f b6 6e 12       	movzbl 0x12(%rsi),%r13d
/home/austen/programming/dm-afs/src/dm_afs_metadata.c:153
    num_map_entries_per_block = config->num_map_entries_per_block;
    1534:	44 0f b6 66 14       	movzbl 0x14(%rsi),%r12d
/home/austen/programming/dm-afs/src/dm_afs_metadata.c:147
    uint32_t data_sector_offset = context->passive_fs.data_start_off;
    1539:	89 45 c8             	mov    %eax,-0x38(%rbp)
/home/austen/programming/dm-afs/src/dm_afs_metadata.c:150
    afs_map = context->afs_map;
    153c:	48 8b 86 50 b0 03 00 	mov    0x3b050(%rsi),%rax
kmalloc():
/usr/src/linux-headers-4.15.0-54-generic/./include/linux/slab.h:499
    1543:	be c0 00 40 01       	mov    $0x14000c0,%esi
afs_fill_map():
/home/austen/programming/dm-afs/src/dm_afs_metadata.c:150
    1548:	48 89 45 b0          	mov    %rax,-0x50(%rbp)
kmalloc():
/usr/src/linux-headers-4.15.0-54-generic/./include/linux/slab.h:499
    154c:	e8 00 00 00 00       	callq  1551 <afs_fill_map+0x51>
			154d: R_X86_64_PC32	kmem_cache_alloc_trace-0x4
    1551:	48 8b 3d 00 00 00 00 	mov    0x0(%rip),%rdi        # 1558 <afs_fill_map+0x58>
			1554: R_X86_64_PC32	kmalloc_caches+0x5c
    1558:	49 89 c6             	mov    %rax,%r14
    155b:	ba 00 10 00 00       	mov    $0x1000,%edx
    1560:	be c0 00 40 01       	mov    $0x14000c0,%esi
    1565:	e8 00 00 00 00       	callq  156a <afs_fill_map+0x6a>
			1566: R_X86_64_PC32	kmem_cache_alloc_trace-0x4
afs_fill_map():
/home/austen/programming/dm-afs/src/dm_afs_metadata.c:157

    map_block = kmalloc(AFS_BLOCK_SIZE, GFP_KERNEL);
    ptr_block = kmalloc(sizeof(*ptr_block), GFP_KERNEL);
    afs_action(map_block && ptr_block, ret = -ENOMEM, err, "could not allocate memory for map data [%d]", ret);
    156a:	4d 85 f6             	test   %r14,%r14
    156d:	0f 84 12 03 00 00    	je     1885 <afs_fill_map+0x385>
    1573:	48 85 c0             	test   %rax,%rax
    1576:	49 89 c7             	mov    %rax,%r15
    1579:	0f 84 06 03 00 00    	je     1885 <afs_fill_map+0x385>
/home/austen/programming/dm-afs/src/dm_afs_metadata.c:179
        if (entries_left <= num_map_entries_per_block) {
            memcpy(afs_map + (entries_read * map_entry_sz), map_block_entries, entries_left * map_entry_sz);
            entries_read += entries_left;
            break;
        } else {
            memcpy(afs_map + (entries_read * map_entry_sz), map_block_entries, num_map_entries_per_block * map_entry_sz);
    157f:	41 0f b6 cd          	movzbl %r13b,%ecx
    1583:	41 0f b6 c4          	movzbl %r12b,%eax
    1587:	31 ff                	xor    %edi,%edi
    1589:	89 45 cc             	mov    %eax,-0x34(%rbp)
    158c:	89 4d a8             	mov    %ecx,-0x58(%rbp)
    158f:	0f af c1             	imul   %ecx,%eax
/home/austen/programming/dm-afs/src/dm_afs_metadata.c:160
    entries_read = 0;
    1592:	31 c9                	xor    %ecx,%ecx
/home/austen/programming/dm-afs/src/dm_afs_metadata.c:165
        allocation_set(&context->vector, sb->map_block_ptrs[i]);
    1594:	4c 89 7d 88          	mov    %r15,-0x78(%rbp)
    1598:	4c 89 75 c0          	mov    %r14,-0x40(%rbp)
    159c:	41 89 cf             	mov    %ecx,%r15d
    159f:	41 89 fe             	mov    %edi,%r14d
/home/austen/programming/dm-afs/src/dm_afs_metadata.c:179
            memcpy(afs_map + (entries_read * map_entry_sz), map_block_entries, num_map_entries_per_block * map_entry_sz);
    15a2:	89 45 ac             	mov    %eax,-0x54(%rbp)
    15a5:	48 98                	cltq   
    15a7:	48 89 45 a0          	mov    %rax,-0x60(%rbp)
    15ab:	48 8b 45 90          	mov    -0x70(%rbp),%rax
    15af:	4c 8d a8 c0 00 00 00 	lea    0xc0(%rax),%r13
    15b6:	48 05 fc 0f 00 00    	add    $0xffc,%rax
    15bc:	48 89 45 98          	mov    %rax,-0x68(%rbp)
/home/austen/programming/dm-afs/src/dm_afs_metadata.c:165
        allocation_set(&context->vector, sb->map_block_ptrs[i]);
    15c0:	48 8d 83 08 21 00 00 	lea    0x2108(%rbx),%rax
    15c7:	48 89 45 b8          	mov    %rax,-0x48(%rbp)
    15cb:	eb 1f                	jmp    15ec <afs_fill_map+0xec>
memcpy():
/usr/src/linux-headers-4.15.0-54-generic/./include/linux/string.h:344 (discriminator 2)
    15cd:	48 8b 55 a0          	mov    -0x60(%rbp),%rdx
    15d1:	49 83 c5 04          	add    $0x4,%r13
    15d5:	e8 00 00 00 00       	callq  15da <afs_fill_map+0xda>
			15d6: R_X86_64_PC32	memcpy-0x4
afs_fill_map():
/home/austen/programming/dm-afs/src/dm_afs_metadata.c:180 (discriminator 2)
            entries_read += num_map_entries_per_block;
    15da:	44 03 7d cc          	add    -0x34(%rbp),%r15d
    15de:	44 03 75 ac          	add    -0x54(%rbp),%r14d
/home/austen/programming/dm-afs/src/dm_afs_metadata.c:161 (discriminator 2)
    for (i = 0; i < NUM_MAP_BLKS_IN_SB; i++) {
    15e2:	4c 3b 6d 98          	cmp    -0x68(%rbp),%r13
    15e6:	0f 84 93 01 00 00    	je     177f <afs_fill_map+0x27f>
/home/austen/programming/dm-afs/src/dm_afs_metadata.c:163
        ret = read_page(map_block, context->bdev, sb->map_block_ptrs[i], data_sector_offset, false);
    15ec:	48 8b 73 08          	mov    0x8(%rbx),%rsi
    15f0:	8b 4d c8             	mov    -0x38(%rbp),%ecx
    15f3:	45 31 c0             	xor    %r8d,%r8d
    15f6:	41 8b 55 00          	mov    0x0(%r13),%edx
    15fa:	48 8b 7d c0          	mov    -0x40(%rbp),%rdi
    15fe:	e8 00 00 00 00       	callq  1603 <afs_fill_map+0x103>
			15ff: R_X86_64_PC32	read_page-0x4
/home/austen/programming/dm-afs/src/dm_afs_metadata.c:164
        afs_assert(!ret, read_err, "could not read map block [%d:%u]", ret, entries_read % config->num_map_blocks);
    1603:	85 c0                	test   %eax,%eax
/home/austen/programming/dm-afs/src/dm_afs_metadata.c:163
        ret = read_page(map_block, context->bdev, sb->map_block_ptrs[i], data_sector_offset, false);
    1605:	41 89 c4             	mov    %eax,%r12d
/home/austen/programming/dm-afs/src/dm_afs_metadata.c:164
        afs_assert(!ret, read_err, "could not read map block [%d:%u]", ret, entries_read % config->num_map_blocks);
    1608:	0f 85 3e 02 00 00    	jne    184c <afs_fill_map+0x34c>
/home/austen/programming/dm-afs/src/dm_afs_metadata.c:165
        allocation_set(&context->vector, sb->map_block_ptrs[i]);
    160e:	41 8b 75 00          	mov    0x0(%r13),%esi
    1612:	48 8b 7d b8          	mov    -0x48(%rbp),%rdi
    1616:	e8 00 00 00 00       	callq  161b <afs_fill_map+0x11b>
			1617: R_X86_64_PC32	allocation_set-0x4
/home/austen/programming/dm-afs/src/dm_afs_metadata.c:170
        map_block_entries = map_block_unused + config->unused_space_per_block;
    161b:	0f b6 43 13          	movzbl 0x13(%rbx),%eax
    161f:	48 8b 4d c0          	mov    -0x40(%rbp),%rcx
    1623:	44 89 f7             	mov    %r14d,%edi
/home/austen/programming/dm-afs/src/dm_afs_metadata.c:173
        entries_left = config->num_blocks - entries_read;
    1626:	8b 53 18             	mov    0x18(%rbx),%edx
    1629:	48 03 7d b0          	add    -0x50(%rbp),%rdi
/home/austen/programming/dm-afs/src/dm_afs_metadata.c:170
        map_block_entries = map_block_unused + config->unused_space_per_block;
    162d:	48 8d 74 01 40       	lea    0x40(%rcx,%rax,1),%rsi
/home/austen/programming/dm-afs/src/dm_afs_metadata.c:173
        entries_left = config->num_blocks - entries_read;
    1632:	89 d0                	mov    %edx,%eax
    1634:	44 29 f8             	sub    %r15d,%eax
/home/austen/programming/dm-afs/src/dm_afs_metadata.c:174
        if (entries_left <= num_map_entries_per_block) {
    1637:	3b 45 cc             	cmp    -0x34(%rbp),%eax
    163a:	77 91                	ja     15cd <afs_fill_map+0xcd>
    163c:	44 89 65 98          	mov    %r12d,-0x68(%rbp)
    1640:	41 89 d4             	mov    %edx,%r12d
/home/austen/programming/dm-afs/src/dm_afs_metadata.c:175
            memcpy(afs_map + (entries_read * map_entry_sz), map_block_entries, entries_left * map_entry_sz);
    1643:	89 c2                	mov    %eax,%edx
    1645:	0f af 55 a8          	imul   -0x58(%rbp),%edx
    1649:	4c 8b 7d 88          	mov    -0x78(%rbp),%r15
    164d:	49 89 ce             	mov    %rcx,%r14
memcpy():
/usr/src/linux-headers-4.15.0-54-generic/./include/linux/string.h:344
    1650:	e8 00 00 00 00       	callq  1655 <afs_fill_map+0x155>
			1651: R_X86_64_PC32	memcpy-0x4
afs_fill_map():
/home/austen/programming/dm-afs/src/dm_afs_metadata.c:183
        }
    }
    afs_debug("super block's map blocks read");
    1655:	8b 35 00 00 00 00    	mov    0x0(%rip),%esi        # 165b <afs_fill_map+0x15b>
			1657: R_X86_64_PC32	afs_debug_mode-0x4
    165b:	85 f6                	test   %esi,%esi
    165d:	0f 85 ca 01 00 00    	jne    182d <afs_fill_map+0x32d>
/home/austen/programming/dm-afs/src/dm_afs_metadata.c:186 (discriminator 1)

    // Begin reading from pointer blocks.
    for (i = 0; i < config->num_ptr_blocks; i++) {
    1663:	8b 4b 20             	mov    0x20(%rbx),%ecx
    1666:	85 c9                	test   %ecx,%ecx
    1668:	0f 84 61 01 00 00    	je     17cf <afs_fill_map+0x2cf>
/home/austen/programming/dm-afs/src/dm_afs_metadata.c:186
    166e:	c7 45 c0 00 00 00 00 	movl   $0x0,-0x40(%rbp)
/home/austen/programming/dm-afs/src/dm_afs_metadata.c:187
        next_block = (i == 0) ? sb->first_ptr_block : ptr_block->next_ptr_block;
    1675:	8b 55 c0             	mov    -0x40(%rbp),%edx
    1678:	85 d2                	test   %edx,%edx
    167a:	0f 85 f3 00 00 00    	jne    1773 <afs_fill_map+0x273>
/home/austen/programming/dm-afs/src/dm_afs_metadata.c:187 (discriminator 1)
    1680:	48 8b 45 90          	mov    -0x70(%rbp),%rax
    1684:	44 8b a8 fc 0f 00 00 	mov    0xffc(%rax),%r13d
/home/austen/programming/dm-afs/src/dm_afs_metadata.c:188 (discriminator 4)
        ret = read_page(ptr_block, context->bdev, next_block, data_sector_offset, false);
    168b:	48 8b 73 08          	mov    0x8(%rbx),%rsi
    168f:	8b 4d c8             	mov    -0x38(%rbp),%ecx
    1692:	45 31 c0             	xor    %r8d,%r8d
    1695:	44 89 ea             	mov    %r13d,%edx
    1698:	4c 89 ff             	mov    %r15,%rdi
    169b:	e8 00 00 00 00       	callq  16a0 <afs_fill_map+0x1a0>
			169c: R_X86_64_PC32	read_page-0x4
/home/austen/programming/dm-afs/src/dm_afs_metadata.c:189 (discriminator 4)
        afs_assert(!ret, read_err, "could not read pointer block [%d:%u]", ret, i);
    16a0:	85 c0                	test   %eax,%eax
    16a2:	0f 85 55 01 00 00    	jne    17fd <afs_fill_map+0x2fd>
/home/austen/programming/dm-afs/src/dm_afs_metadata.c:190
        allocation_set(&context->vector, next_block);
    16a8:	48 8b 7d b8          	mov    -0x48(%rbp),%rdi
    16ac:	44 89 ee             	mov    %r13d,%esi
    16af:	e8 00 00 00 00       	callq  16b4 <afs_fill_map+0x1b4>
			16b0: R_X86_64_PC32	allocation_set-0x4
    16b4:	44 8b 6d a8          	mov    -0x58(%rbp),%r13d
    16b8:	45 0f af ec          	imul   %r12d,%r13d
/home/austen/programming/dm-afs/src/dm_afs_metadata.c:193
        // TODO: Calculate and verify hash of ptr_block.

        for (j = 0; j < NUM_MAP_BLKS_IN_PB; i++) {
    16bc:	eb 0d                	jmp    16cb <afs_fill_map+0x1cb>
memcpy():
/usr/src/linux-headers-4.15.0-54-generic/./include/linux/string.h:344 (discriminator 2)
    16be:	48 8b 55 a0          	mov    -0x60(%rbp),%rdx
    16c2:	e8 00 00 00 00       	callq  16c7 <afs_fill_map+0x1c7>
			16c3: R_X86_64_PC32	memcpy-0x4
afs_fill_map():
/home/austen/programming/dm-afs/src/dm_afs_metadata.c:212 (discriminator 2)
                memcpy(afs_map + (entries_read * map_entry_sz), map_block_entries, entries_left * map_entry_sz);
                entries_read += entries_left;
                break;
            } else {
                memcpy(afs_map + (entries_read * map_entry_sz), map_block_entries, num_map_entries_per_block * map_entry_sz);
                entries_read += num_map_entries_per_block;
    16c7:	44 03 65 cc          	add    -0x34(%rbp),%r12d
/home/austen/programming/dm-afs/src/dm_afs_metadata.c:195 (discriminator 1)
            ret = read_page(map_block, context->bdev, ptr_block->map_block_ptrs[j], data_sector_offset, false);
    16cb:	41 8b 57 10          	mov    0x10(%r15),%edx
    16cf:	48 8b 73 08          	mov    0x8(%rbx),%rsi
    16d3:	45 31 c0             	xor    %r8d,%r8d
    16d6:	8b 4d c8             	mov    -0x38(%rbp),%ecx
    16d9:	4c 89 f7             	mov    %r14,%rdi
    16dc:	e8 00 00 00 00       	callq  16e1 <afs_fill_map+0x1e1>
			16dd: R_X86_64_PC32	read_page-0x4
/home/austen/programming/dm-afs/src/dm_afs_metadata.c:196 (discriminator 1)
            afs_assert(!ret, read_err, "could not read map block [%d:%u]", ret, entries_read % config->num_map_blocks);
    16e1:	85 c0                	test   %eax,%eax
    16e3:	0f 85 ad 00 00 00    	jne    1796 <afs_fill_map+0x296>
/home/austen/programming/dm-afs/src/dm_afs_metadata.c:197
            allocation_set(&context->vector, ptr_block->map_block_ptrs[j]);
    16e9:	41 8b 77 10          	mov    0x10(%r15),%esi
    16ed:	48 8b 7d b8          	mov    -0x48(%rbp),%rdi
    16f1:	e8 00 00 00 00       	callq  16f6 <afs_fill_map+0x1f6>
			16f2: R_X86_64_PC32	allocation_set-0x4
/home/austen/programming/dm-afs/src/dm_afs_metadata.c:205
            entries_left = config->num_blocks - entries_read;
    16f6:	8b 4b 18             	mov    0x18(%rbx),%ecx
    16f9:	44 89 ef             	mov    %r13d,%edi
/home/austen/programming/dm-afs/src/dm_afs_metadata.c:202
            map_block_entries = map_block_unused + config->unused_space_per_block;
    16fc:	0f b6 43 13          	movzbl 0x13(%rbx),%eax
    1700:	48 03 7d b0          	add    -0x50(%rbp),%rdi
    1704:	83 45 c0 01          	addl   $0x1,-0x40(%rbp)
    1708:	44 03 6d ac          	add    -0x54(%rbp),%r13d
/home/austen/programming/dm-afs/src/dm_afs_metadata.c:205
            entries_left = config->num_blocks - entries_read;
    170c:	89 ca                	mov    %ecx,%edx
    170e:	44 29 e2             	sub    %r12d,%edx
/home/austen/programming/dm-afs/src/dm_afs_metadata.c:206
            if (entries_left <= num_map_entries_per_block) {
    1711:	3b 55 cc             	cmp    -0x34(%rbp),%edx
/home/austen/programming/dm-afs/src/dm_afs_metadata.c:202
            map_block_entries = map_block_unused + config->unused_space_per_block;
    1714:	49 8d 74 06 40       	lea    0x40(%r14,%rax,1),%rsi
/home/austen/programming/dm-afs/src/dm_afs_metadata.c:206
            if (entries_left <= num_map_entries_per_block) {
    1719:	77 a3                	ja     16be <afs_fill_map+0x1be>
/home/austen/programming/dm-afs/src/dm_afs_metadata.c:207
                memcpy(afs_map + (entries_read * map_entry_sz), map_block_entries, entries_left * map_entry_sz);
    171b:	0f af 55 a8          	imul   -0x58(%rbp),%edx
    171f:	41 89 cc             	mov    %ecx,%r12d
memcpy():
/usr/src/linux-headers-4.15.0-54-generic/./include/linux/string.h:344
    1722:	e8 00 00 00 00       	callq  1727 <afs_fill_map+0x227>
			1723: R_X86_64_PC32	memcpy-0x4
afs_fill_map():
/home/austen/programming/dm-afs/src/dm_afs_metadata.c:186
    for (i = 0; i < config->num_ptr_blocks; i++) {
    1727:	8b 45 c0             	mov    -0x40(%rbp),%eax
    172a:	39 43 20             	cmp    %eax,0x20(%rbx)
    172d:	0f 87 42 ff ff ff    	ja     1675 <afs_fill_map+0x175>
    1733:	44 89 e1             	mov    %r12d,%ecx
/home/austen/programming/dm-afs/src/dm_afs_metadata.c:220

        // If we break into here because no more entries were left,
        // then clearly we shouldn't even have any more pointer blocks
        // left.
    }
    afs_action(entries_read == config->num_blocks, ret = -EIO, read_err,
    1736:	44 8b 43 18          	mov    0x18(%rbx),%r8d
    173a:	41 39 c8             	cmp    %ecx,%r8d
    173d:	0f 85 94 00 00 00    	jne    17d7 <afs_fill_map+0x2d7>
/home/austen/programming/dm-afs/src/dm_afs_metadata.c:222
        "read incorrect amount [%u:%u]", entries_read, config->num_blocks);
    afs_debug("pointer blocks' map blocks read");
    1743:	8b 05 00 00 00 00    	mov    0x0(%rip),%eax        # 1749 <afs_fill_map+0x249>
			1745: R_X86_64_PC32	afs_debug_mode-0x4
    1749:	85 c0                	test   %eax,%eax
    174b:	0f 85 5f 01 00 00    	jne    18b0 <afs_fill_map+0x3b0>
/home/austen/programming/dm-afs/src/dm_afs_metadata.c:230
    kfree(map_block);
    return 0;

read_err:
    if (ptr_block)
        kfree(ptr_block);
    1751:	4c 89 ff             	mov    %r15,%rdi
    1754:	e8 00 00 00 00       	callq  1759 <afs_fill_map+0x259>
			1755: R_X86_64_PC32	kfree-0x4
/home/austen/programming/dm-afs/src/dm_afs_metadata.c:232
    if (map_block)
        kfree(map_block);
    1759:	4c 89 f7             	mov    %r14,%rdi
    175c:	e8 00 00 00 00       	callq  1761 <afs_fill_map+0x261>
			175d: R_X86_64_PC32	kfree-0x4
/home/austen/programming/dm-afs/src/dm_afs_metadata.c:236

err:
    return ret;
}
    1761:	8b 45 98             	mov    -0x68(%rbp),%eax
    1764:	48 83 c4 58          	add    $0x58,%rsp
    1768:	5b                   	pop    %rbx
    1769:	41 5c                	pop    %r12
    176b:	41 5d                	pop    %r13
    176d:	41 5e                	pop    %r14
    176f:	41 5f                	pop    %r15
    1771:	5d                   	pop    %rbp
    1772:	c3                   	retq   
/home/austen/programming/dm-afs/src/dm_afs_metadata.c:187 (discriminator 2)
        next_block = (i == 0) ? sb->first_ptr_block : ptr_block->next_ptr_block;
    1773:	45 8b af fc 0f 00 00 	mov    0xffc(%r15),%r13d
    177a:	e9 0c ff ff ff       	jmpq   168b <afs_fill_map+0x18b>
    177f:	44 89 f8             	mov    %r15d,%eax
    1782:	44 89 65 98          	mov    %r12d,-0x68(%rbp)
    1786:	4c 8b 7d 88          	mov    -0x78(%rbp),%r15
    178a:	4c 8b 75 c0          	mov    -0x40(%rbp),%r14
/home/austen/programming/dm-afs/src/dm_afs_metadata.c:180
            entries_read += num_map_entries_per_block;
    178e:	41 89 c4             	mov    %eax,%r12d
    1791:	e9 bf fe ff ff       	jmpq   1655 <afs_fill_map+0x155>
    1796:	41 89 c1             	mov    %eax,%r9d
/home/austen/programming/dm-afs/src/dm_afs_metadata.c:196
            afs_assert(!ret, read_err, "could not read map block [%d:%u]", ret, entries_read % config->num_map_blocks);
    1799:	31 d2                	xor    %edx,%edx
    179b:	44 89 e0             	mov    %r12d,%eax
    179e:	f7 73 1c             	divl   0x1c(%rbx)
    17a1:	44 89 c9             	mov    %r9d,%ecx
    17a4:	48 c7 c6 00 00 00 00 	mov    $0x0,%rsi
			17a7: R_X86_64_32S	.rodata+0x138
    17ab:	48 c7 c7 00 00 00 00 	mov    $0x0,%rdi
			17ae: R_X86_64_32S	.rodata.str1.8+0xb98
    17b2:	31 c0                	xor    %eax,%eax
    17b4:	44 89 4d cc          	mov    %r9d,-0x34(%rbp)
    17b8:	41 89 d0             	mov    %edx,%r8d
    17bb:	ba c4 00 00 00       	mov    $0xc4,%edx
    17c0:	e8 00 00 00 00       	callq  17c5 <afs_fill_map+0x2c5>
			17c1: R_X86_64_PC32	printk-0x4
/home/austen/programming/dm-afs/src/dm_afs_metadata.c:195
            ret = read_page(map_block, context->bdev, ptr_block->map_block_ptrs[j], data_sector_offset, false);
    17c5:	44 8b 4d cc          	mov    -0x34(%rbp),%r9d
    17c9:	44 89 4d 98          	mov    %r9d,-0x68(%rbp)
/home/austen/programming/dm-afs/src/dm_afs_metadata.c:196
            afs_assert(!ret, read_err, "could not read map block [%d:%u]", ret, entries_read % config->num_map_blocks);
    17cd:	eb 82                	jmp    1751 <afs_fill_map+0x251>
/home/austen/programming/dm-afs/src/dm_afs_metadata.c:186
    for (i = 0; i < config->num_ptr_blocks; i++) {
    17cf:	44 89 e1             	mov    %r12d,%ecx
    17d2:	e9 5f ff ff ff       	jmpq   1736 <afs_fill_map+0x236>
/home/austen/programming/dm-afs/src/dm_afs_metadata.c:220 (discriminator 1)
    afs_action(entries_read == config->num_blocks, ret = -EIO, read_err,
    17d7:	ba dd 00 00 00       	mov    $0xdd,%edx
    17dc:	48 c7 c6 00 00 00 00 	mov    $0x0,%rsi
			17df: R_X86_64_32S	.rodata+0x138
    17e3:	48 c7 c7 00 00 00 00 	mov    $0x0,%rdi
			17e6: R_X86_64_32S	.rodata.str1.8+0xc50
    17ea:	31 c0                	xor    %eax,%eax
    17ec:	e8 00 00 00 00       	callq  17f1 <afs_fill_map+0x2f1>
			17ed: R_X86_64_PC32	printk-0x4
    17f1:	c7 45 98 fb ff ff ff 	movl   $0xfffffffb,-0x68(%rbp)
    17f8:	e9 54 ff ff ff       	jmpq   1751 <afs_fill_map+0x251>
/home/austen/programming/dm-afs/src/dm_afs_metadata.c:189 (discriminator 1)
        afs_assert(!ret, read_err, "could not read pointer block [%d:%u]", ret, i);
    17fd:	44 8b 45 c0          	mov    -0x40(%rbp),%r8d
    1801:	89 c1                	mov    %eax,%ecx
    1803:	89 45 cc             	mov    %eax,-0x34(%rbp)
    1806:	ba bd 00 00 00       	mov    $0xbd,%edx
    180b:	48 c7 c6 00 00 00 00 	mov    $0x0,%rsi
			180e: R_X86_64_32S	.rodata+0x138
    1812:	48 c7 c7 00 00 00 00 	mov    $0x0,%rdi
			1815: R_X86_64_32S	.rodata.str1.8+0xc10
    1819:	31 c0                	xor    %eax,%eax
    181b:	e8 00 00 00 00       	callq  1820 <afs_fill_map+0x320>
			181c: R_X86_64_PC32	printk-0x4
/home/austen/programming/dm-afs/src/dm_afs_metadata.c:188 (discriminator 1)
        ret = read_page(ptr_block, context->bdev, next_block, data_sector_offset, false);
    1820:	44 8b 4d cc          	mov    -0x34(%rbp),%r9d
    1824:	44 89 4d 98          	mov    %r9d,-0x68(%rbp)
/home/austen/programming/dm-afs/src/dm_afs_metadata.c:189 (discriminator 1)
        afs_assert(!ret, read_err, "could not read pointer block [%d:%u]", ret, i);
    1828:	e9 24 ff ff ff       	jmpq   1751 <afs_fill_map+0x251>
/home/austen/programming/dm-afs/src/dm_afs_metadata.c:183 (discriminator 1)
    afs_debug("super block's map blocks read");
    182d:	ba b7 00 00 00       	mov    $0xb7,%edx
    1832:	48 c7 c6 00 00 00 00 	mov    $0x0,%rsi
			1835: R_X86_64_32S	.rodata+0x138
    1839:	48 c7 c7 00 00 00 00 	mov    $0x0,%rdi
			183c: R_X86_64_32S	.rodata.str1.8+0xbd8
    1840:	31 c0                	xor    %eax,%eax
    1842:	e8 00 00 00 00       	callq  1847 <afs_fill_map+0x347>
			1843: R_X86_64_PC32	printk-0x4
    1847:	e9 17 fe ff ff       	jmpq   1663 <afs_fill_map+0x163>
    184c:	44 89 f8             	mov    %r15d,%eax
/home/austen/programming/dm-afs/src/dm_afs_metadata.c:164 (discriminator 1)
        afs_assert(!ret, read_err, "could not read map block [%d:%u]", ret, entries_read % config->num_map_blocks);
    184f:	31 d2                	xor    %edx,%edx
    1851:	44 89 e1             	mov    %r12d,%ecx
    1854:	f7 73 1c             	divl   0x1c(%rbx)
    1857:	48 c7 c6 00 00 00 00 	mov    $0x0,%rsi
			185a: R_X86_64_32S	.rodata+0x138
    185e:	48 c7 c7 00 00 00 00 	mov    $0x0,%rdi
			1861: R_X86_64_32S	.rodata.str1.8+0xb98
    1865:	31 c0                	xor    %eax,%eax
    1867:	4c 8b 7d 88          	mov    -0x78(%rbp),%r15
    186b:	4c 8b 75 c0          	mov    -0x40(%rbp),%r14
    186f:	44 89 65 98          	mov    %r12d,-0x68(%rbp)
    1873:	41 89 d0             	mov    %edx,%r8d
    1876:	ba a4 00 00 00       	mov    $0xa4,%edx
    187b:	e8 00 00 00 00       	callq  1880 <afs_fill_map+0x380>
			187c: R_X86_64_PC32	printk-0x4
    1880:	e9 cc fe ff ff       	jmpq   1751 <afs_fill_map+0x251>
/home/austen/programming/dm-afs/src/dm_afs_metadata.c:157 (discriminator 1)
    afs_action(map_block && ptr_block, ret = -ENOMEM, err, "could not allocate memory for map data [%d]", ret);
    1885:	b9 f4 ff ff ff       	mov    $0xfffffff4,%ecx
    188a:	ba 9d 00 00 00       	mov    $0x9d,%edx
    188f:	48 c7 c6 00 00 00 00 	mov    $0x0,%rsi
			1892: R_X86_64_32S	.rodata+0x138
    1896:	48 c7 c7 00 00 00 00 	mov    $0x0,%rdi
			1899: R_X86_64_32S	.rodata.str1.8+0xb50
    189d:	31 c0                	xor    %eax,%eax
    189f:	e8 00 00 00 00       	callq  18a4 <afs_fill_map+0x3a4>
			18a0: R_X86_64_PC32	printk-0x4
    18a4:	c7 45 98 f4 ff ff ff 	movl   $0xfffffff4,-0x68(%rbp)
    18ab:	e9 b1 fe ff ff       	jmpq   1761 <afs_fill_map+0x261>
/home/austen/programming/dm-afs/src/dm_afs_metadata.c:222 (discriminator 1)
    afs_debug("pointer blocks' map blocks read");
    18b0:	ba de 00 00 00       	mov    $0xde,%edx
    18b5:	48 c7 c6 00 00 00 00 	mov    $0x0,%rsi
			18b8: R_X86_64_32S	.rodata+0x138
    18bc:	48 c7 c7 00 00 00 00 	mov    $0x0,%rdi
			18bf: R_X86_64_32S	.rodata.str1.8+0xc88
    18c3:	31 c0                	xor    %eax,%eax
    18c5:	e8 00 00 00 00       	callq  18ca <afs_fill_map+0x3ca>
			18c6: R_X86_64_PC32	printk-0x4
    18ca:	e9 82 fe ff ff       	jmpq   1751 <afs_fill_map+0x251>
    18cf:	90                   	nop

00000000000018d0 <afs_create_map_blocks>:
afs_create_map_blocks():
/home/austen/programming/dm-afs/src/dm_afs_metadata.c:243
/**
 * Create the Artifice map blocks.
 */
int
afs_create_map_blocks(struct afs_private *context)
{
    18d0:	e8 00 00 00 00       	callq  18d5 <afs_create_map_blocks+0x5>
			18d1: R_X86_64_PC32	__fentry__-0x4
    18d5:	55                   	push   %rbp
    18d6:	48 89 e5             	mov    %rsp,%rbp
    18d9:	41 57                	push   %r15
    18db:	41 56                	push   %r14
    18dd:	41 55                	push   %r13
    18df:	41 54                	push   %r12
    18e1:	53                   	push   %rbx
    18e2:	48 89 fb             	mov    %rdi,%rbx
    18e5:	48 83 ec 38          	sub    $0x38,%rsp
/home/austen/programming/dm-afs/src/dm_afs_metadata.c:260
    uint32_t entries_written;
    uint32_t entries_left;
    uint32_t i;
    int ret = 0;

    afs_map = context->afs_map;
    18e9:	48 8b 87 50 b0 03 00 	mov    0x3b050(%rdi),%rax
/home/austen/programming/dm-afs/src/dm_afs_metadata.c:263
    map_entry_sz = config->map_entry_sz;
    num_map_entries_per_block = config->num_map_entries_per_block;
    num_map_blocks = config->num_map_blocks;
    18f0:	44 8b 7f 1c          	mov    0x1c(%rdi),%r15d
/home/austen/programming/dm-afs/src/dm_afs_metadata.c:262
    num_map_entries_per_block = config->num_map_entries_per_block;
    18f4:	44 0f b6 6f 14       	movzbl 0x14(%rdi),%r13d
/home/austen/programming/dm-afs/src/dm_afs_metadata.c:264
    num_blocks = config->num_blocks;
    18f9:	44 8b 77 18          	mov    0x18(%rdi),%r14d
/home/austen/programming/dm-afs/src/dm_afs_metadata.c:260
    afs_map = context->afs_map;
    18fd:	48 89 45 c8          	mov    %rax,-0x38(%rbp)
/home/austen/programming/dm-afs/src/dm_afs_metadata.c:267

    // Allocate all required map_blocks.
    map_blocks = vmalloc(AFS_BLOCK_SIZE * num_map_blocks);
    1901:	45 89 f8             	mov    %r15d,%r8d
/home/austen/programming/dm-afs/src/dm_afs_metadata.c:261
    map_entry_sz = config->map_entry_sz;
    1904:	0f b6 47 12          	movzbl 0x12(%rdi),%eax
/home/austen/programming/dm-afs/src/dm_afs_metadata.c:267
    map_blocks = vmalloc(AFS_BLOCK_SIZE * num_map_blocks);
    1908:	41 c1 e0 0c          	shl    $0xc,%r8d
    190c:	45 89 c4             	mov    %r8d,%r12d
    190f:	4c 89 e7             	mov    %r12,%rdi
/home/austen/programming/dm-afs/src/dm_afs_metadata.c:261
    map_entry_sz = config->map_entry_sz;
    1912:	88 45 c0             	mov    %al,-0x40(%rbp)
/home/austen/programming/dm-afs/src/dm_afs_metadata.c:267
    map_blocks = vmalloc(AFS_BLOCK_SIZE * num_map_blocks);
    1915:	e8 00 00 00 00       	callq  191a <afs_create_map_blocks+0x4a>
			1916: R_X86_64_PC32	vmalloc-0x4
/home/austen/programming/dm-afs/src/dm_afs_metadata.c:268
    afs_action(map_blocks, ret = -ENOMEM, block_err, "could not allocate map blocks [%d]", ret);
    191a:	48 85 c0             	test   %rax,%rax
/home/austen/programming/dm-afs/src/dm_afs_metadata.c:267
    map_blocks = vmalloc(AFS_BLOCK_SIZE * num_map_blocks);
    191d:	48 89 45 a8          	mov    %rax,-0x58(%rbp)
/home/austen/programming/dm-afs/src/dm_afs_metadata.c:268
    afs_action(map_blocks, ret = -ENOMEM, block_err, "could not allocate map blocks [%d]", ret);
    1921:	0f 84 e5 00 00 00    	je     1a0c <afs_create_map_blocks+0x13c>
/home/austen/programming/dm-afs/src/dm_afs_metadata.c:269
    afs_debug("allocated Artifice map blocks");
    1927:	8b 15 00 00 00 00    	mov    0x0(%rip),%edx        # 192d <afs_create_map_blocks+0x5d>
			1929: R_X86_64_PC32	afs_debug_mode-0x4
    192d:	85 d2                	test   %edx,%edx
    192f:	0f 85 47 01 00 00    	jne    1a7c <afs_create_map_blocks+0x1ac>
memset():
/usr/src/linux-headers-4.15.0-54-generic/./include/linux/string.h:329
    1935:	4c 89 e2             	mov    %r12,%rdx
    1938:	4c 8b 65 a8          	mov    -0x58(%rbp),%r12
    193c:	31 f6                	xor    %esi,%esi
    193e:	4c 89 e7             	mov    %r12,%rdi
    1941:	e8 00 00 00 00       	callq  1946 <afs_create_map_blocks+0x76>
			1942: R_X86_64_PC32	memset-0x4
afs_create_map_blocks():
/home/austen/programming/dm-afs/src/dm_afs_metadata.c:275

    memset(map_blocks, 0, AFS_BLOCK_SIZE * num_map_blocks);
    entries_written = 0;

    ptr = map_blocks;
    for (i = 0; i < num_map_blocks; i++) {
    1946:	45 85 ff             	test   %r15d,%r15d
    1949:	0f 84 92 00 00 00    	je     19e1 <afs_create_map_blocks+0x111>
/home/austen/programming/dm-afs/src/dm_afs_metadata.c:285
        entries_left = num_blocks - entries_written;
        if (entries_left <= num_map_entries_per_block) {
            memcpy(entries_start, afs_map + (entries_written * map_entry_sz), entries_left * map_entry_sz);
            entries_written += entries_left;
        } else {
            memcpy(entries_start, afs_map + (entries_written * map_entry_sz), num_map_entries_per_block * map_entry_sz);
    194f:	0f b6 45 c0          	movzbl -0x40(%rbp),%eax
    1953:	89 45 bc             	mov    %eax,-0x44(%rbp)
    1956:	41 0f af c5          	imul   %r13d,%eax
    195a:	48 98                	cltq   
    195c:	48 89 45 b0          	mov    %rax,-0x50(%rbp)
    1960:	41 8d 47 ff          	lea    -0x1(%r15),%eax
/home/austen/programming/dm-afs/src/dm_afs_metadata.c:272
    entries_written = 0;
    1964:	45 31 ff             	xor    %r15d,%r15d
    1967:	48 83 c0 01          	add    $0x1,%rax
    196b:	48 c1 e0 0c          	shl    $0xc,%rax
    196f:	4c 01 e0             	add    %r12,%rax
    1972:	48 89 45 c0          	mov    %rax,-0x40(%rbp)
    1976:	eb 34                	jmp    19ac <afs_create_map_blocks+0xdc>
/home/austen/programming/dm-afs/src/dm_afs_metadata.c:282
            memcpy(entries_start, afs_map + (entries_written * map_entry_sz), entries_left * map_entry_sz);
    1978:	0f af d0             	imul   %eax,%edx
memcpy():
/usr/src/linux-headers-4.15.0-54-generic/./include/linux/string.h:344
    197b:	4c 89 c7             	mov    %r8,%rdi
afs_create_map_blocks():
/home/austen/programming/dm-afs/src/dm_afs_metadata.c:264
    num_blocks = config->num_blocks;
    197e:	45 89 f7             	mov    %r14d,%r15d
memcpy():
/usr/src/linux-headers-4.15.0-54-generic/./include/linux/string.h:344
    1981:	e8 00 00 00 00       	callq  1986 <afs_create_map_blocks+0xb6>
			1982: R_X86_64_PC32	memcpy-0x4
    1986:	49 89 c0             	mov    %rax,%r8
afs_create_map_blocks():
/home/austen/programming/dm-afs/src/dm_afs_metadata.c:289 (discriminator 2)
            entries_written += num_map_entries_per_block;
        }

        hash_sha512(entries_start, AFS_BLOCK_SIZE - SHA512_SZ - config->unused_space_per_block, hash);
    1989:	0f b6 43 13          	movzbl 0x13(%rbx),%eax
    198d:	be c0 0f 00 00       	mov    $0xfc0,%esi
    1992:	4c 89 e2             	mov    %r12,%rdx
    1995:	4c 89 c7             	mov    %r8,%rdi
/home/austen/programming/dm-afs/src/dm_afs_metadata.c:290 (discriminator 2)
        ptr += AFS_BLOCK_SIZE;
    1998:	49 81 c4 00 10 00 00 	add    $0x1000,%r12
/home/austen/programming/dm-afs/src/dm_afs_metadata.c:289 (discriminator 2)
        hash_sha512(entries_start, AFS_BLOCK_SIZE - SHA512_SZ - config->unused_space_per_block, hash);
    199f:	29 c6                	sub    %eax,%esi
    19a1:	e8 00 00 00 00       	callq  19a6 <afs_create_map_blocks+0xd6>
			19a2: R_X86_64_PC32	hash_sha512-0x4
/home/austen/programming/dm-afs/src/dm_afs_metadata.c:275 (discriminator 2)
    for (i = 0; i < num_map_blocks; i++) {
    19a6:	4c 3b 65 c0          	cmp    -0x40(%rbp),%r12
    19aa:	74 35                	je     19e1 <afs_create_map_blocks+0x111>
/home/austen/programming/dm-afs/src/dm_afs_metadata.c:278
        entries_start = unused_space + config->unused_space_per_block;
    19ac:	0f b6 43 13          	movzbl 0x13(%rbx),%eax
/home/austen/programming/dm-afs/src/dm_afs_metadata.c:280
        entries_left = num_blocks - entries_written;
    19b0:	44 89 f2             	mov    %r14d,%edx
    19b3:	44 29 fa             	sub    %r15d,%edx
/home/austen/programming/dm-afs/src/dm_afs_metadata.c:278
        entries_start = unused_space + config->unused_space_per_block;
    19b6:	4d 8d 44 04 40       	lea    0x40(%r12,%rax,1),%r8
    19bb:	8b 45 bc             	mov    -0x44(%rbp),%eax
    19be:	89 c6                	mov    %eax,%esi
    19c0:	41 0f af f7          	imul   %r15d,%esi
    19c4:	48 03 75 c8          	add    -0x38(%rbp),%rsi
/home/austen/programming/dm-afs/src/dm_afs_metadata.c:281
        if (entries_left <= num_map_entries_per_block) {
    19c8:	44 39 ea             	cmp    %r13d,%edx
    19cb:	76 ab                	jbe    1978 <afs_create_map_blocks+0xa8>
memcpy():
/usr/src/linux-headers-4.15.0-54-generic/./include/linux/string.h:344
    19cd:	48 8b 55 b0          	mov    -0x50(%rbp),%rdx
    19d1:	4c 89 c7             	mov    %r8,%rdi
afs_create_map_blocks():
/home/austen/programming/dm-afs/src/dm_afs_metadata.c:286
            entries_written += num_map_entries_per_block;
    19d4:	45 01 ef             	add    %r13d,%r15d
memcpy():
/usr/src/linux-headers-4.15.0-54-generic/./include/linux/string.h:344
    19d7:	e8 00 00 00 00       	callq  19dc <afs_create_map_blocks+0x10c>
			19d8: R_X86_64_PC32	memcpy-0x4
    19dc:	49 89 c0             	mov    %rax,%r8
    19df:	eb a8                	jmp    1989 <afs_create_map_blocks+0xb9>
afs_create_map_blocks():
/home/austen/programming/dm-afs/src/dm_afs_metadata.c:292
    }
    afs_action(entries_written == num_blocks, ret = -EIO, write_err,
    19e1:	45 39 fe             	cmp    %r15d,%r14d
    19e4:	75 66                	jne    1a4c <afs_create_map_blocks+0x17c>
/home/austen/programming/dm-afs/src/dm_afs_metadata.c:294
        "wrote incorrect amount [%u:%u]", entries_written, num_blocks);
    afs_debug("initialized Artifice map blocks");
    19e6:	8b 05 00 00 00 00    	mov    0x0(%rip),%eax        # 19ec <afs_create_map_blocks+0x11c>
			19e8: R_X86_64_PC32	afs_debug_mode-0x4
    19ec:	85 c0                	test   %eax,%eax
    19ee:	75 40                	jne    1a30 <afs_create_map_blocks+0x160>
/home/austen/programming/dm-afs/src/dm_afs_metadata.c:296

    context->afs_map_blocks = map_blocks;
    19f0:	48 8b 45 a8          	mov    -0x58(%rbp),%rax
    19f4:	48 89 83 58 b0 03 00 	mov    %rax,0x3b058(%rbx)
/home/austen/programming/dm-afs/src/dm_afs_metadata.c:297
    return 0;
    19fb:	31 c0                	xor    %eax,%eax
/home/austen/programming/dm-afs/src/dm_afs_metadata.c:304
write_err:
    vfree(map_blocks);

block_err:
    return ret;
}
    19fd:	48 83 c4 38          	add    $0x38,%rsp
    1a01:	5b                   	pop    %rbx
    1a02:	41 5c                	pop    %r12
    1a04:	41 5d                	pop    %r13
    1a06:	41 5e                	pop    %r14
    1a08:	41 5f                	pop    %r15
    1a0a:	5d                   	pop    %rbp
    1a0b:	c3                   	retq   
/home/austen/programming/dm-afs/src/dm_afs_metadata.c:268 (discriminator 1)
    afs_action(map_blocks, ret = -ENOMEM, block_err, "could not allocate map blocks [%d]", ret);
    1a0c:	b9 f4 ff ff ff       	mov    $0xfffffff4,%ecx
    1a11:	ba 0c 01 00 00       	mov    $0x10c,%edx
    1a16:	48 c7 c6 00 00 00 00 	mov    $0x0,%rsi
			1a19: R_X86_64_32S	.rodata+0x120
    1a1d:	48 c7 c7 00 00 00 00 	mov    $0x0,%rdi
			1a20: R_X86_64_32S	.rodata.str1.8+0xcc8
    1a24:	e8 00 00 00 00       	callq  1a29 <afs_create_map_blocks+0x159>
			1a25: R_X86_64_PC32	printk-0x4
    1a29:	b8 f4 ff ff ff       	mov    $0xfffffff4,%eax
    1a2e:	eb cd                	jmp    19fd <afs_create_map_blocks+0x12d>
/home/austen/programming/dm-afs/src/dm_afs_metadata.c:294 (discriminator 1)
    afs_debug("initialized Artifice map blocks");
    1a30:	ba 26 01 00 00       	mov    $0x126,%edx
    1a35:	48 c7 c6 00 00 00 00 	mov    $0x0,%rsi
			1a38: R_X86_64_32S	.rodata+0x120
    1a3c:	48 c7 c7 00 00 00 00 	mov    $0x0,%rdi
			1a3f: R_X86_64_32S	.rodata.str1.8+0xd78
    1a43:	31 c0                	xor    %eax,%eax
    1a45:	e8 00 00 00 00       	callq  1a4a <afs_create_map_blocks+0x17a>
			1a46: R_X86_64_PC32	printk-0x4
    1a4a:	eb a4                	jmp    19f0 <afs_create_map_blocks+0x120>
/home/austen/programming/dm-afs/src/dm_afs_metadata.c:292 (discriminator 1)
    afs_action(entries_written == num_blocks, ret = -EIO, write_err,
    1a4c:	45 89 f0             	mov    %r14d,%r8d
    1a4f:	44 89 f9             	mov    %r15d,%ecx
    1a52:	ba 25 01 00 00       	mov    $0x125,%edx
    1a57:	48 c7 c6 00 00 00 00 	mov    $0x0,%rsi
			1a5a: R_X86_64_32S	.rodata+0x120
    1a5e:	48 c7 c7 00 00 00 00 	mov    $0x0,%rdi
			1a61: R_X86_64_32S	.rodata.str1.8+0xd40
    1a65:	31 c0                	xor    %eax,%eax
    1a67:	e8 00 00 00 00       	callq  1a6c <afs_create_map_blocks+0x19c>
			1a68: R_X86_64_PC32	printk-0x4
/home/austen/programming/dm-afs/src/dm_afs_metadata.c:300 (discriminator 1)
    vfree(map_blocks);
    1a6c:	48 8b 7d a8          	mov    -0x58(%rbp),%rdi
    1a70:	e8 00 00 00 00       	callq  1a75 <afs_create_map_blocks+0x1a5>
			1a71: R_X86_64_PC32	vfree-0x4
/home/austen/programming/dm-afs/src/dm_afs_metadata.c:292 (discriminator 1)
    afs_action(entries_written == num_blocks, ret = -EIO, write_err,
    1a75:	b8 fb ff ff ff       	mov    $0xfffffffb,%eax
    1a7a:	eb 81                	jmp    19fd <afs_create_map_blocks+0x12d>
/home/austen/programming/dm-afs/src/dm_afs_metadata.c:269 (discriminator 1)
    afs_debug("allocated Artifice map blocks");
    1a7c:	ba 0d 01 00 00       	mov    $0x10d,%edx
    1a81:	48 c7 c6 00 00 00 00 	mov    $0x0,%rsi
			1a84: R_X86_64_32S	.rodata+0x120
    1a88:	48 c7 c7 00 00 00 00 	mov    $0x0,%rdi
			1a8b: R_X86_64_32S	.rodata.str1.8+0xd08
    1a8f:	31 c0                	xor    %eax,%eax
    1a91:	e8 00 00 00 00       	callq  1a96 <afs_create_map_blocks+0x1c6>
			1a92: R_X86_64_PC32	printk-0x4
    1a96:	e9 9a fe ff ff       	jmpq   1935 <afs_create_map_blocks+0x65>
    1a9b:	0f 1f 44 00 00       	nopl   0x0(%rax,%rax,1)

0000000000001aa0 <write_map_blocks>:
write_map_blocks():
/home/austen/programming/dm-afs/src/dm_afs_metadata.c:311
/**
 * Write map blocks to pointer blocks.
 */
int
write_map_blocks(struct afs_private *context, bool update)
{
    1aa0:	e8 00 00 00 00       	callq  1aa5 <write_map_blocks+0x5>
			1aa1: R_X86_64_PC32	__fentry__-0x4
    1aa5:	55                   	push   %rbp
    1aa6:	48 89 e5             	mov    %rsp,%rbp
    1aa9:	41 57                	push   %r15
    1aab:	41 56                	push   %r14
    1aad:	41 55                	push   %r13
    1aaf:	41 54                	push   %r12
    1ab1:	53                   	push   %rbx
    1ab2:	48 83 ec 58          	sub    $0x58,%rsp
/home/austen/programming/dm-afs/src/dm_afs_metadata.c:323
    uint32_t num_ptr_blocks;
    uint32_t blocks_written;
    uint32_t blocks_left;
    uint32_t block_num;
    int64_t i, j;
    uint32_t data_sector_offset = context->passive_fs.data_start_off;
    1ab6:	8b 87 14 20 00 00    	mov    0x2014(%rdi),%eax
/home/austen/programming/dm-afs/src/dm_afs_metadata.c:331
    sb = &context->super_block;
    fs = &context->passive_fs;
    afs_map_blocks = context->afs_map_blocks;

    num_map_blocks = config->num_map_blocks;
    num_ptr_blocks = config->num_ptr_blocks;
    1abc:	8b 4f 20             	mov    0x20(%rdi),%ecx
/home/austen/programming/dm-afs/src/dm_afs_metadata.c:323
    uint32_t data_sector_offset = context->passive_fs.data_start_off;
    1abf:	89 45 cc             	mov    %eax,-0x34(%rbp)
/home/austen/programming/dm-afs/src/dm_afs_metadata.c:327
    fs = &context->passive_fs;
    1ac2:	48 8d 87 00 20 00 00 	lea    0x2000(%rdi),%rax
/home/austen/programming/dm-afs/src/dm_afs_metadata.c:331
    num_ptr_blocks = config->num_ptr_blocks;
    1ac9:	89 4d a0             	mov    %ecx,-0x60(%rbp)
/home/austen/programming/dm-afs/src/dm_afs_metadata.c:327
    fs = &context->passive_fs;
    1acc:	48 89 45 a8          	mov    %rax,-0x58(%rbp)
/home/austen/programming/dm-afs/src/dm_afs_metadata.c:328
    afs_map_blocks = context->afs_map_blocks;
    1ad0:	48 8b 87 58 b0 03 00 	mov    0x3b058(%rdi),%rax
    1ad7:	48 89 45 b8          	mov    %rax,-0x48(%rbp)
/home/austen/programming/dm-afs/src/dm_afs_metadata.c:330
    num_map_blocks = config->num_map_blocks;
    1adb:	8b 47 1c             	mov    0x1c(%rdi),%eax
/home/austen/programming/dm-afs/src/dm_afs_metadata.c:337

    // First utilize all the map block pointers from the super block.
    blocks_written = 0;
    for (i = 0; i < NUM_MAP_BLKS_IN_SB; i++) {
        blocks_left = num_map_blocks - blocks_written;
        if (!blocks_left) {
    1ade:	85 c0                	test   %eax,%eax
/home/austen/programming/dm-afs/src/dm_afs_metadata.c:330
    num_map_blocks = config->num_map_blocks;
    1ae0:	89 45 c8             	mov    %eax,-0x38(%rbp)
/home/austen/programming/dm-afs/src/dm_afs_metadata.c:337
        if (!blocks_left) {
    1ae3:	0f 84 9c 00 00 00    	je     1b85 <write_map_blocks+0xe5>
    1ae9:	8b 45 c8             	mov    -0x38(%rbp),%eax
    1aec:	41 89 f6             	mov    %esi,%r14d
    1aef:	4c 8b 65 b8          	mov    -0x48(%rbp),%r12
    1af3:	44 8d 78 ff          	lea    -0x1(%rax),%r15d
    1af7:	49 8d 47 01          	lea    0x1(%r15),%rax
    1afb:	44 89 7d 94          	mov    %r15d,-0x6c(%rbp)
/home/austen/programming/dm-afs/src/dm_afs_metadata.c:335
    for (i = 0; i < NUM_MAP_BLKS_IN_SB; i++) {
    1aff:	45 31 ff             	xor    %r15d,%r15d
/home/austen/programming/dm-afs/src/dm_afs_metadata.c:343
            afs_debug("super block map block pointers filled");
            return 0;
        }

        if (!update) {
            block_num = acquire_block(fs, &context->vector);
    1b02:	4d 89 fd             	mov    %r15,%r13
    1b05:	49 89 ff             	mov    %rdi,%r15
    1b08:	48 89 45 c0          	mov    %rax,-0x40(%rbp)
    1b0c:	48 8d 87 08 21 00 00 	lea    0x2108(%rdi),%rax
    1b13:	48 89 45 b0          	mov    %rax,-0x50(%rbp)
    1b17:	eb 42                	jmp    1b5b <write_map_blocks+0xbb>
/home/austen/programming/dm-afs/src/dm_afs_metadata.c:347
            afs_action(block_num != AFS_INVALID_BLOCK, ret = -ENOSPC, done, "no more free blocks");
            sb->map_block_ptrs[i] = block_num;
        } else {
            block_num = sb->map_block_ptrs[i];
    1b19:	43 8b 94 af c0 10 00 	mov    0x10c0(%r15,%r13,4),%edx
    1b20:	00 
/home/austen/programming/dm-afs/src/dm_afs_metadata.c:349
        }
        ret = write_page(afs_map_blocks + (blocks_written * AFS_BLOCK_SIZE), context->bdev, block_num, data_sector_offset, true);
    1b21:	49 8b 77 08          	mov    0x8(%r15),%rsi
    1b25:	8b 4d cc             	mov    -0x34(%rbp),%ecx
    1b28:	41 b8 01 00 00 00    	mov    $0x1,%r8d
    1b2e:	4c 89 e7             	mov    %r12,%rdi
    1b31:	e8 00 00 00 00       	callq  1b36 <write_map_blocks+0x96>
			1b32: R_X86_64_PC32	write_page-0x4
/home/austen/programming/dm-afs/src/dm_afs_metadata.c:350
        afs_assert(!ret, done, "could not write blocks [%d:%u]", ret, blocks_written);
    1b36:	85 c0                	test   %eax,%eax
    1b38:	0f 85 d0 01 00 00    	jne    1d0e <write_map_blocks+0x26e>
/home/austen/programming/dm-afs/src/dm_afs_metadata.c:335 (discriminator 2)
    for (i = 0; i < NUM_MAP_BLKS_IN_SB; i++) {
    1b3e:	49 83 c5 01          	add    $0x1,%r13
    1b42:	83 c3 01             	add    $0x1,%ebx
    1b45:	49 81 fd cf 03 00 00 	cmp    $0x3cf,%r13
    1b4c:	74 5a                	je     1ba8 <write_map_blocks+0x108>
    1b4e:	49 81 c4 00 10 00 00 	add    $0x1000,%r12
/home/austen/programming/dm-afs/src/dm_afs_metadata.c:337
        if (!blocks_left) {
    1b55:	4c 3b 6d c0          	cmp    -0x40(%rbp),%r13
    1b59:	74 2a                	je     1b85 <write_map_blocks+0xe5>
/home/austen/programming/dm-afs/src/dm_afs_metadata.c:342
        if (!update) {
    1b5b:	45 84 f6             	test   %r14b,%r14b
    1b5e:	44 89 eb             	mov    %r13d,%ebx
    1b61:	75 b6                	jne    1b19 <write_map_blocks+0x79>
/home/austen/programming/dm-afs/src/dm_afs_metadata.c:343
            block_num = acquire_block(fs, &context->vector);
    1b63:	48 8b 75 b0          	mov    -0x50(%rbp),%rsi
    1b67:	48 8b 7d a8          	mov    -0x58(%rbp),%rdi
    1b6b:	e8 00 00 00 00       	callq  1b70 <write_map_blocks+0xd0>
			1b6c: R_X86_64_PC32	acquire_block-0x4
/home/austen/programming/dm-afs/src/dm_afs_metadata.c:344
            afs_action(block_num != AFS_INVALID_BLOCK, ret = -ENOSPC, done, "no more free blocks");
    1b70:	83 f8 ff             	cmp    $0xffffffff,%eax
/home/austen/programming/dm-afs/src/dm_afs_metadata.c:343
            block_num = acquire_block(fs, &context->vector);
    1b73:	89 c2                	mov    %eax,%edx
/home/austen/programming/dm-afs/src/dm_afs_metadata.c:344
            afs_action(block_num != AFS_INVALID_BLOCK, ret = -ENOSPC, done, "no more free blocks");
    1b75:	0f 84 e3 01 00 00    	je     1d5e <write_map_blocks+0x2be>
/home/austen/programming/dm-afs/src/dm_afs_metadata.c:345
            sb->map_block_ptrs[i] = block_num;
    1b7b:	43 89 84 af c0 10 00 	mov    %eax,0x10c0(%r15,%r13,4)
    1b82:	00 
    1b83:	eb 9c                	jmp    1b21 <write_map_blocks+0x81>
/home/austen/programming/dm-afs/src/dm_afs_metadata.c:338
            afs_debug("super block map block pointers filled");
    1b85:	8b 0d 00 00 00 00    	mov    0x0(%rip),%ecx        # 1b8b <write_map_blocks+0xeb>
			1b87: R_X86_64_PC32	afs_debug_mode-0x4
    1b8b:	85 c9                	test   %ecx,%ecx
    1b8d:	0f 85 d2 01 00 00    	jne    1d65 <write_map_blocks+0x2c5>
/home/austen/programming/dm-afs/src/dm_afs_metadata.c:377 (discriminator 1)
            afs_assert(!ret, done, "could not write block [%d:%u]", ret, blocks_written);
            blocks_written += 1;
        }
    }
    afs_debug("pointer blocks map block pointers filled");
    ret = 0;
    1b93:	45 31 d2             	xor    %r10d,%r10d
/home/austen/programming/dm-afs/src/dm_afs_metadata.c:381

done:
    return ret;
}
    1b96:	48 83 c4 58          	add    $0x58,%rsp
    1b9a:	44 89 d0             	mov    %r10d,%eax
    1b9d:	5b                   	pop    %rbx
    1b9e:	41 5c                	pop    %r12
    1ba0:	41 5d                	pop    %r13
    1ba2:	41 5e                	pop    %r14
    1ba4:	41 5f                	pop    %r15
    1ba6:	5d                   	pop    %rbp
    1ba7:	c3                   	retq   
    1ba8:	8b 45 a0             	mov    -0x60(%rbp),%eax
/home/austen/programming/dm-afs/src/dm_afs_metadata.c:353
    afs_debug("super block map block pointers filled");
    1bab:	8b 15 00 00 00 00    	mov    0x0(%rip),%edx        # 1bb1 <write_map_blocks+0x111>
			1bad: R_X86_64_PC32	afs_debug_mode-0x4
    1bb1:	4d 89 fd             	mov    %r15,%r13
    1bb4:	85 d2                	test   %edx,%edx
    1bb6:	48 89 45 88          	mov    %rax,-0x78(%rbp)
    1bba:	0f 85 ca 00 00 00    	jne    1c8a <write_map_blocks+0x1ea>
/home/austen/programming/dm-afs/src/dm_afs_metadata.c:357
    for (i = 0; i < num_ptr_blocks; i++) {
    1bc0:	48 83 7d 88 00       	cmpq   $0x0,-0x78(%rbp)
/home/austen/programming/dm-afs/src/dm_afs_metadata.c:356
    afs_ptr_blocks = context->afs_ptr_blocks;
    1bc5:	49 8b 87 60 b0 03 00 	mov    0x3b060(%r15),%rax
/home/austen/programming/dm-afs/src/dm_afs_metadata.c:357
    for (i = 0; i < num_ptr_blocks; i++) {
    1bcc:	74 c5                	je     1b93 <write_map_blocks+0xf3>
/home/austen/programming/dm-afs/src/dm_afs_metadata.c:365
                block_num = acquire_block(fs, &context->vector);
    1bce:	49 8d 8d 08 21 00 00 	lea    0x2108(%r13),%rcx
/home/austen/programming/dm-afs/src/dm_afs_metadata.c:335
    for (i = 0; i < NUM_MAP_BLKS_IN_SB; i++) {
    1bd5:	48 c7 45 98 00 00 00 	movq   $0x0,-0x68(%rbp)
    1bdc:	00 
    1bdd:	49 89 c7             	mov    %rax,%r15
    1be0:	44 88 75 b0          	mov    %r14b,-0x50(%rbp)
/home/austen/programming/dm-afs/src/dm_afs_metadata.c:365
                block_num = acquire_block(fs, &context->vector);
    1be4:	48 89 4d a0          	mov    %rcx,-0x60(%rbp)
/home/austen/programming/dm-afs/src/dm_afs_metadata.c:360
            if (!blocks_left) {
    1be8:	3b 5d c8             	cmp    -0x38(%rbp),%ebx
    1beb:	74 7b                	je     1c68 <write_map_blocks+0x1c8>
    1bed:	8b 45 94             	mov    -0x6c(%rbp),%eax
/home/austen/programming/dm-afs/src/dm_afs_metadata.c:369
                block_num = afs_ptr_blocks[i].map_block_ptrs[j];
    1bf0:	41 89 dc             	mov    %ebx,%r12d
/home/austen/programming/dm-afs/src/dm_afs_metadata.c:358
        for (j = 0; j < NUM_MAP_BLKS_IN_PB; j++) {
    1bf3:	45 31 f6             	xor    %r14d,%r14d
    1bf6:	29 d8                	sub    %ebx,%eax
    1bf8:	48 83 c0 01          	add    $0x1,%rax
    1bfc:	48 89 45 c0          	mov    %rax,-0x40(%rbp)
    1c00:	eb 41                	jmp    1c43 <write_map_blocks+0x1a3>
/home/austen/programming/dm-afs/src/dm_afs_metadata.c:369
                block_num = afs_ptr_blocks[i].map_block_ptrs[j];
    1c02:	43 8b 54 b7 10       	mov    0x10(%r15,%r14,4),%edx
/home/austen/programming/dm-afs/src/dm_afs_metadata.c:371
            ret = write_page(afs_map_blocks + (blocks_written * AFS_BLOCK_SIZE), context->bdev, block_num, data_sector_offset, true);
    1c07:	42 8d 3c 33          	lea    (%rbx,%r14,1),%edi
    1c0b:	49 8b 75 08          	mov    0x8(%r13),%rsi
    1c0f:	8b 4d cc             	mov    -0x34(%rbp),%ecx
    1c12:	41 b8 01 00 00 00    	mov    $0x1,%r8d
    1c18:	c1 e7 0c             	shl    $0xc,%edi
    1c1b:	48 03 7d b8          	add    -0x48(%rbp),%rdi
    1c1f:	e8 00 00 00 00       	callq  1c24 <write_map_blocks+0x184>
			1c20: R_X86_64_PC32	write_page-0x4
/home/austen/programming/dm-afs/src/dm_afs_metadata.c:372
            afs_assert(!ret, done, "could not write block [%d:%u]", ret, blocks_written);
    1c24:	85 c0                	test   %eax,%eax
    1c26:	0f 85 b7 00 00 00    	jne    1ce3 <write_map_blocks+0x243>
/home/austen/programming/dm-afs/src/dm_afs_metadata.c:358 (discriminator 2)
        for (j = 0; j < NUM_MAP_BLKS_IN_PB; j++) {
    1c2c:	49 83 c6 01          	add    $0x1,%r14
/home/austen/programming/dm-afs/src/dm_afs_metadata.c:373 (discriminator 2)
            blocks_written += 1;
    1c30:	41 83 c4 01          	add    $0x1,%r12d
/home/austen/programming/dm-afs/src/dm_afs_metadata.c:358 (discriminator 2)
        for (j = 0; j < NUM_MAP_BLKS_IN_PB; j++) {
    1c34:	49 81 fe fb 03 00 00 	cmp    $0x3fb,%r14
    1c3b:	74 2f                	je     1c6c <write_map_blocks+0x1cc>
/home/austen/programming/dm-afs/src/dm_afs_metadata.c:360
            if (!blocks_left) {
    1c3d:	4c 39 75 c0          	cmp    %r14,-0x40(%rbp)
    1c41:	74 29                	je     1c6c <write_map_blocks+0x1cc>
/home/austen/programming/dm-afs/src/dm_afs_metadata.c:364
            if (!update) {
    1c43:	80 7d b0 00          	cmpb   $0x0,-0x50(%rbp)
    1c47:	75 b9                	jne    1c02 <write_map_blocks+0x162>
/home/austen/programming/dm-afs/src/dm_afs_metadata.c:365
                block_num = acquire_block(fs, &context->vector);
    1c49:	48 8b 75 a0          	mov    -0x60(%rbp),%rsi
    1c4d:	48 8b 7d a8          	mov    -0x58(%rbp),%rdi
    1c51:	e8 00 00 00 00       	callq  1c56 <write_map_blocks+0x1b6>
			1c52: R_X86_64_PC32	acquire_block-0x4
/home/austen/programming/dm-afs/src/dm_afs_metadata.c:366
                afs_action(block_num != AFS_INVALID_BLOCK, ret = -ENOSPC, done, "no more free blocks");
    1c56:	83 f8 ff             	cmp    $0xffffffff,%eax
/home/austen/programming/dm-afs/src/dm_afs_metadata.c:365
                block_num = acquire_block(fs, &context->vector);
    1c59:	89 c2                	mov    %eax,%edx
/home/austen/programming/dm-afs/src/dm_afs_metadata.c:366
                afs_action(block_num != AFS_INVALID_BLOCK, ret = -ENOSPC, done, "no more free blocks");
    1c5b:	0f 84 d8 00 00 00    	je     1d39 <write_map_blocks+0x299>
/home/austen/programming/dm-afs/src/dm_afs_metadata.c:367
                afs_ptr_blocks[i].map_block_ptrs[j] = block_num;
    1c61:	43 89 44 b7 10       	mov    %eax,0x10(%r15,%r14,4)
    1c66:	eb 9f                	jmp    1c07 <write_map_blocks+0x167>
/home/austen/programming/dm-afs/src/dm_afs_metadata.c:360
            if (!blocks_left) {
    1c68:	44 8b 65 c8          	mov    -0x38(%rbp),%r12d
/home/austen/programming/dm-afs/src/dm_afs_metadata.c:357 (discriminator 2)
    for (i = 0; i < num_ptr_blocks; i++) {
    1c6c:	48 83 45 98 01       	addq   $0x1,-0x68(%rbp)
    1c71:	49 81 c7 00 10 00 00 	add    $0x1000,%r15
    1c78:	48 8b 45 98          	mov    -0x68(%rbp),%rax
    1c7c:	48 3b 45 88          	cmp    -0x78(%rbp),%rax
    1c80:	7d 34                	jge    1cb6 <write_map_blocks+0x216>
    1c82:	44 89 e3             	mov    %r12d,%ebx
    1c85:	e9 5e ff ff ff       	jmpq   1be8 <write_map_blocks+0x148>
/home/austen/programming/dm-afs/src/dm_afs_metadata.c:353 (discriminator 1)
    afs_debug("super block map block pointers filled");
    1c8a:	31 c0                	xor    %eax,%eax
    1c8c:	ba 61 01 00 00       	mov    $0x161,%edx
    1c91:	48 c7 c6 00 00 00 00 	mov    $0x0,%rsi
			1c94: R_X86_64_32S	.rodata+0x100
    1c98:	48 c7 c7 00 00 00 00 	mov    $0x0,%rdi
			1c9b: R_X86_64_32S	.rodata.str1.8+0xdb8
    1c9f:	e8 00 00 00 00       	callq  1ca4 <write_map_blocks+0x204>
			1ca0: R_X86_64_PC32	printk-0x4
/home/austen/programming/dm-afs/src/dm_afs_metadata.c:357 (discriminator 1)
    for (i = 0; i < num_ptr_blocks; i++) {
    1ca4:	48 83 7d 88 00       	cmpq   $0x0,-0x78(%rbp)
/home/austen/programming/dm-afs/src/dm_afs_metadata.c:356 (discriminator 1)
    afs_ptr_blocks = context->afs_ptr_blocks;
    1ca9:	49 8b 87 60 b0 03 00 	mov    0x3b060(%r15),%rax
/home/austen/programming/dm-afs/src/dm_afs_metadata.c:357 (discriminator 1)
    for (i = 0; i < num_ptr_blocks; i++) {
    1cb0:	0f 85 18 ff ff ff    	jne    1bce <write_map_blocks+0x12e>
/home/austen/programming/dm-afs/src/dm_afs_metadata.c:376
    afs_debug("pointer blocks map block pointers filled");
    1cb6:	8b 05 00 00 00 00    	mov    0x0(%rip),%eax        # 1cbc <write_map_blocks+0x21c>
			1cb8: R_X86_64_PC32	afs_debug_mode-0x4
    1cbc:	85 c0                	test   %eax,%eax
    1cbe:	0f 84 cf fe ff ff    	je     1b93 <write_map_blocks+0xf3>
/home/austen/programming/dm-afs/src/dm_afs_metadata.c:376 (discriminator 1)
    1cc4:	ba 78 01 00 00       	mov    $0x178,%edx
    1cc9:	48 c7 c6 00 00 00 00 	mov    $0x0,%rsi
			1ccc: R_X86_64_32S	.rodata+0x100
    1cd0:	48 c7 c7 00 00 00 00 	mov    $0x0,%rdi
			1cd3: R_X86_64_32S	.rodata.str1.8+0xe98
    1cd7:	31 c0                	xor    %eax,%eax
    1cd9:	e8 00 00 00 00       	callq  1cde <write_map_blocks+0x23e>
			1cda: R_X86_64_PC32	printk-0x4
    1cde:	e9 b0 fe ff ff       	jmpq   1b93 <write_map_blocks+0xf3>
/home/austen/programming/dm-afs/src/dm_afs_metadata.c:372 (discriminator 1)
            afs_assert(!ret, done, "could not write block [%d:%u]", ret, blocks_written);
    1ce3:	89 c1                	mov    %eax,%ecx
    1ce5:	89 45 cc             	mov    %eax,-0x34(%rbp)
    1ce8:	45 89 e0             	mov    %r12d,%r8d
    1ceb:	ba 74 01 00 00       	mov    $0x174,%edx
    1cf0:	48 c7 c6 00 00 00 00 	mov    $0x0,%rsi
			1cf3: R_X86_64_32S	.rodata+0x100
    1cf7:	48 c7 c7 00 00 00 00 	mov    $0x0,%rdi
			1cfa: R_X86_64_32S	.rodata.str1.8+0xe60
    1cfe:	31 c0                	xor    %eax,%eax
    1d00:	e8 00 00 00 00       	callq  1d05 <write_map_blocks+0x265>
			1d01: R_X86_64_PC32	printk-0x4
    1d05:	44 8b 55 cc          	mov    -0x34(%rbp),%r10d
    1d09:	e9 88 fe ff ff       	jmpq   1b96 <write_map_blocks+0xf6>
/home/austen/programming/dm-afs/src/dm_afs_metadata.c:350 (discriminator 1)
        afs_assert(!ret, done, "could not write blocks [%d:%u]", ret, blocks_written);
    1d0e:	89 c1                	mov    %eax,%ecx
    1d10:	89 45 cc             	mov    %eax,-0x34(%rbp)
    1d13:	41 89 d8             	mov    %ebx,%r8d
    1d16:	ba 5e 01 00 00       	mov    $0x15e,%edx
    1d1b:	48 c7 c6 00 00 00 00 	mov    $0x0,%rsi
			1d1e: R_X86_64_32S	.rodata+0x100
    1d22:	48 c7 c7 00 00 00 00 	mov    $0x0,%rdi
			1d25: R_X86_64_32S	.rodata.str1.8+0xe28
    1d29:	31 c0                	xor    %eax,%eax
    1d2b:	e8 00 00 00 00       	callq  1d30 <write_map_blocks+0x290>
			1d2c: R_X86_64_PC32	printk-0x4
/home/austen/programming/dm-afs/src/dm_afs_metadata.c:349 (discriminator 1)
        ret = write_page(afs_map_blocks + (blocks_written * AFS_BLOCK_SIZE), context->bdev, block_num, data_sector_offset, true);
    1d30:	44 8b 55 cc          	mov    -0x34(%rbp),%r10d
/home/austen/programming/dm-afs/src/dm_afs_metadata.c:350 (discriminator 1)
        afs_assert(!ret, done, "could not write blocks [%d:%u]", ret, blocks_written);
    1d34:	e9 5d fe ff ff       	jmpq   1b96 <write_map_blocks+0xf6>
/home/austen/programming/dm-afs/src/dm_afs_metadata.c:366 (discriminator 1)
                afs_action(block_num != AFS_INVALID_BLOCK, ret = -ENOSPC, done, "no more free blocks");
    1d39:	ba 6e 01 00 00       	mov    $0x16e,%edx
    1d3e:	48 c7 c6 00 00 00 00 	mov    $0x0,%rsi
			1d41: R_X86_64_32S	.rodata+0x100
    1d45:	48 c7 c7 00 00 00 00 	mov    $0x0,%rdi
			1d48: R_X86_64_32S	.rodata.str1.8+0xdf8
    1d4c:	31 c0                	xor    %eax,%eax
    1d4e:	e8 00 00 00 00       	callq  1d53 <write_map_blocks+0x2b3>
			1d4f: R_X86_64_PC32	printk-0x4
    1d53:	41 ba e4 ff ff ff    	mov    $0xffffffe4,%r10d
    1d59:	e9 38 fe ff ff       	jmpq   1b96 <write_map_blocks+0xf6>
/home/austen/programming/dm-afs/src/dm_afs_metadata.c:344 (discriminator 1)
            afs_action(block_num != AFS_INVALID_BLOCK, ret = -ENOSPC, done, "no more free blocks");
    1d5e:	ba 58 01 00 00       	mov    $0x158,%edx
    1d63:	eb d9                	jmp    1d3e <write_map_blocks+0x29e>
/home/austen/programming/dm-afs/src/dm_afs_metadata.c:338 (discriminator 1)
            afs_debug("super block map block pointers filled");
    1d65:	ba 52 01 00 00       	mov    $0x152,%edx
    1d6a:	48 c7 c6 00 00 00 00 	mov    $0x0,%rsi
			1d6d: R_X86_64_32S	.rodata+0x100
    1d71:	48 c7 c7 00 00 00 00 	mov    $0x0,%rdi
			1d74: R_X86_64_32S	.rodata.str1.8+0xdb8
    1d78:	31 c0                	xor    %eax,%eax
    1d7a:	e8 00 00 00 00       	callq  1d7f <write_map_blocks+0x2df>
			1d7b: R_X86_64_PC32	printk-0x4
/home/austen/programming/dm-afs/src/dm_afs_metadata.c:339 (discriminator 1)
            return 0;
    1d7f:	45 31 d2             	xor    %r10d,%r10d
    1d82:	e9 0f fe ff ff       	jmpq   1b96 <write_map_blocks+0xf6>
    1d87:	66 0f 1f 84 00 00 00 	nopw   0x0(%rax,%rax,1)
    1d8e:	00 00 

0000000000001d90 <write_ptr_blocks>:
write_ptr_blocks():
/home/austen/programming/dm-afs/src/dm_afs_metadata.c:388
/**
 * Write out the ptr blocks to disk.
 */
int
write_ptr_blocks(struct afs_super_block *sb, struct afs_passive_fs *fs, struct afs_private *context)
{
    1d90:	e8 00 00 00 00       	callq  1d95 <write_ptr_blocks+0x5>
			1d91: R_X86_64_PC32	__fentry__-0x4
    1d95:	55                   	push   %rbp
    1d96:	48 89 e5             	mov    %rsp,%rbp
    1d99:	41 57                	push   %r15
    1d9b:	41 56                	push   %r14
    1d9d:	41 55                	push   %r13
    1d9f:	41 54                	push   %r12
    1da1:	49 89 d6             	mov    %rdx,%r14
    1da4:	53                   	push   %rbx
    1da5:	48 83 ec 58          	sub    $0x58,%rsp
    1da9:	48 89 7d 88          	mov    %rdi,-0x78(%rbp)
    1dad:	48 89 75 a8          	mov    %rsi,-0x58(%rbp)
    1db1:	65 48 8b 04 25 28 00 	mov    %gs:0x28,%rax
    1db8:	00 00 
    1dba:	48 89 45 c8          	mov    %rax,-0x38(%rbp)
    1dbe:	31 c0                	xor    %eax,%eax
/home/austen/programming/dm-afs/src/dm_afs_metadata.c:395
    struct afs_ptr_block *ptr_blocks = NULL;
    uint8_t ptr_block_digest[SHA1_SZ];
    uint32_t num_ptr_blocks;
    uint32_t block_num;
    int64_t i;
    uint32_t data_sector_offset = context->passive_fs.data_start_off;
    1dc0:	8b 82 14 20 00 00    	mov    0x2014(%rdx),%eax
/home/austen/programming/dm-afs/src/dm_afs_metadata.c:399
    int ret = 0;

    // Write all the map blocks.
    ret = write_map_blocks(context, false);
    1dc6:	31 f6                	xor    %esi,%esi
    1dc8:	48 89 d7             	mov    %rdx,%rdi
/home/austen/programming/dm-afs/src/dm_afs_metadata.c:395
    uint32_t data_sector_offset = context->passive_fs.data_start_off;
    1dcb:	89 45 a4             	mov    %eax,-0x5c(%rbp)
/home/austen/programming/dm-afs/src/dm_afs_metadata.c:399
    ret = write_map_blocks(context, false);
    1dce:	e8 00 00 00 00       	callq  1dd3 <write_ptr_blocks+0x43>
			1dcf: R_X86_64_PC32	write_map_blocks-0x4
/home/austen/programming/dm-afs/src/dm_afs_metadata.c:400
    afs_assert(!ret, done, "could not write Artifice map blocks [%d]", ret);
    1dd3:	85 c0                	test   %eax,%eax
/home/austen/programming/dm-afs/src/dm_afs_metadata.c:399
    ret = write_map_blocks(context, false);
    1dd5:	89 45 a0             	mov    %eax,-0x60(%rbp)
/home/austen/programming/dm-afs/src/dm_afs_metadata.c:400
    afs_assert(!ret, done, "could not write Artifice map blocks [%d]", ret);
    1dd8:	0f 85 58 01 00 00    	jne    1f36 <write_ptr_blocks+0x1a6>
/home/austen/programming/dm-afs/src/dm_afs_metadata.c:402

    num_ptr_blocks = config->num_ptr_blocks;
    1dde:	41 8b 46 20          	mov    0x20(%r14),%eax
/home/austen/programming/dm-afs/src/dm_afs_metadata.c:403
    if (!num_ptr_blocks) {
    1de2:	85 c0                	test   %eax,%eax
    1de4:	0f 84 a7 00 00 00    	je     1e91 <write_ptr_blocks+0x101>
/home/austen/programming/dm-afs/src/dm_afs_metadata.c:410
    }

    // Write out the ptr blocks themselves to disk. Needs to be done in reverse
    // as ptr blocks themselves hold pointers to other ptr blocks.
    ptr_blocks = context->afs_ptr_blocks;
    for (i = num_ptr_blocks - 1; i >= 0; i--) {
    1dea:	44 8d 60 ff          	lea    -0x1(%rax),%r12d
    1dee:	49 8d 86 08 21 00 00 	lea    0x2108(%r14),%rax
    1df5:	49 8b 96 60 b0 03 00 	mov    0x3b060(%r14),%rdx
    1dfc:	48 89 45 98          	mov    %rax,-0x68(%rbp)
    1e00:	4c 89 e0             	mov    %r12,%rax
    1e03:	4c 89 65 90          	mov    %r12,-0x70(%rbp)
    1e07:	48 c1 e0 0c          	shl    $0xc,%rax
    1e0b:	48 8d 5c 02 10       	lea    0x10(%rdx,%rax,1),%rbx
    1e10:	eb 0f                	jmp    1e21 <write_ptr_blocks+0x91>
/home/austen/programming/dm-afs/src/dm_afs_metadata.c:430
        afs_assert(!ret, done, "could not write ptr block [%d:%llu]", ret, i);

        if (i == 0) {
            sb->first_ptr_block = block_num;
        } else {
            ptr_blocks[i - 1].next_ptr_block = block_num;
    1e12:	44 89 7b ec          	mov    %r15d,-0x14(%rbx)
/home/austen/programming/dm-afs/src/dm_afs_metadata.c:410
    for (i = num_ptr_blocks - 1; i >= 0; i--) {
    1e16:	49 83 ec 01          	sub    $0x1,%r12
    1e1a:	48 81 eb 00 10 00 00 	sub    $0x1000,%rbx
/home/austen/programming/dm-afs/src/dm_afs_metadata.c:413
        if (i == num_ptr_blocks - 1) {
    1e21:	4c 39 65 90          	cmp    %r12,-0x70(%rbp)
    1e25:	4c 8d 6b f0          	lea    -0x10(%rbx),%r13
    1e29:	0f 84 87 00 00 00    	je     1eb6 <write_ptr_blocks+0x126>
/home/austen/programming/dm-afs/src/dm_afs_metadata.c:418
        hash_sha1((uint8_t *)(ptr_blocks + i) + SHA128_SZ, sizeof(*ptr_blocks) - SHA128_SZ, ptr_block_digest);
    1e2f:	48 8d 55 b0          	lea    -0x50(%rbp),%rdx
    1e33:	be f0 0f 00 00       	mov    $0xff0,%esi
    1e38:	48 89 df             	mov    %rbx,%rdi
    1e3b:	e8 00 00 00 00       	callq  1e40 <write_ptr_blocks+0xb0>
			1e3c: R_X86_64_PC32	hash_sha1-0x4
    1e40:	c5 f9 6f 45 b0       	vmovdqa -0x50(%rbp),%xmm0
/home/austen/programming/dm-afs/src/dm_afs_metadata.c:422
        block_num = acquire_block(fs, &context->vector);
    1e45:	48 8b 75 98          	mov    -0x68(%rbp),%rsi
    1e49:	48 8b 7d a8          	mov    -0x58(%rbp),%rdi
    1e4d:	c5 f8 11 43 f0       	vmovups %xmm0,-0x10(%rbx)
    1e52:	e8 00 00 00 00       	callq  1e57 <write_ptr_blocks+0xc7>
			1e53: R_X86_64_PC32	acquire_block-0x4
/home/austen/programming/dm-afs/src/dm_afs_metadata.c:423
        afs_action(block_num != AFS_INVALID_BLOCK, ret = -ENOSPC, done, "no more free blocks");
    1e57:	83 f8 ff             	cmp    $0xffffffff,%eax
/home/austen/programming/dm-afs/src/dm_afs_metadata.c:422
        block_num = acquire_block(fs, &context->vector);
    1e5a:	41 89 c7             	mov    %eax,%r15d
/home/austen/programming/dm-afs/src/dm_afs_metadata.c:423
        afs_action(block_num != AFS_INVALID_BLOCK, ret = -ENOSPC, done, "no more free blocks");
    1e5d:	74 66                	je     1ec5 <write_ptr_blocks+0x135>
/home/austen/programming/dm-afs/src/dm_afs_metadata.c:424
        ret = write_page(ptr_blocks + i, context->bdev, block_num, data_sector_offset, false);
    1e5f:	49 8b 76 08          	mov    0x8(%r14),%rsi
    1e63:	8b 4d a4             	mov    -0x5c(%rbp),%ecx
    1e66:	45 31 c0             	xor    %r8d,%r8d
    1e69:	89 c2                	mov    %eax,%edx
    1e6b:	4c 89 ef             	mov    %r13,%rdi
    1e6e:	e8 00 00 00 00       	callq  1e73 <write_ptr_blocks+0xe3>
			1e6f: R_X86_64_PC32	write_page-0x4
/home/austen/programming/dm-afs/src/dm_afs_metadata.c:425
        afs_assert(!ret, done, "could not write ptr block [%d:%llu]", ret, i);
    1e73:	85 c0                	test   %eax,%eax
    1e75:	75 71                	jne    1ee8 <write_ptr_blocks+0x158>
/home/austen/programming/dm-afs/src/dm_afs_metadata.c:427
        if (i == 0) {
    1e77:	4d 85 e4             	test   %r12,%r12
    1e7a:	75 96                	jne    1e12 <write_ptr_blocks+0x82>
/home/austen/programming/dm-afs/src/dm_afs_metadata.c:428
            sb->first_ptr_block = block_num;
    1e7c:	48 8b 45 88          	mov    -0x78(%rbp),%rax
    1e80:	44 89 b8 fc 0f 00 00 	mov    %r15d,0xffc(%rax)
/home/austen/programming/dm-afs/src/dm_afs_metadata.c:433
        }
    }
    afs_debug("pointer blocks written");
    1e87:	8b 05 00 00 00 00    	mov    0x0(%rip),%eax        # 1e8d <write_ptr_blocks+0xfd>
			1e89: R_X86_64_PC32	afs_debug_mode-0x4
    1e8d:	85 c0                	test   %eax,%eax
    1e8f:	75 7f                	jne    1f10 <write_ptr_blocks+0x180>
/home/austen/programming/dm-afs/src/dm_afs_metadata.c:438
    ret = 0;

done:
    return ret;
}
    1e91:	48 8b 4d c8          	mov    -0x38(%rbp),%rcx
    1e95:	65 48 33 0c 25 28 00 	xor    %gs:0x28,%rcx
    1e9c:	00 00 
    1e9e:	8b 45 a0             	mov    -0x60(%rbp),%eax
    1ea1:	0f 85 b0 00 00 00    	jne    1f57 <write_ptr_blocks+0x1c7>
    1ea7:	48 83 c4 58          	add    $0x58,%rsp
    1eab:	5b                   	pop    %rbx
    1eac:	41 5c                	pop    %r12
    1eae:	41 5d                	pop    %r13
    1eb0:	41 5e                	pop    %r14
    1eb2:	41 5f                	pop    %r15
    1eb4:	5d                   	pop    %rbp
    1eb5:	c3                   	retq   
/home/austen/programming/dm-afs/src/dm_afs_metadata.c:414
            ptr_blocks[i].next_ptr_block = AFS_INVALID_BLOCK;
    1eb6:	c7 83 ec 0f 00 00 ff 	movl   $0xffffffff,0xfec(%rbx)
    1ebd:	ff ff ff 
    1ec0:	e9 6a ff ff ff       	jmpq   1e2f <write_ptr_blocks+0x9f>
/home/austen/programming/dm-afs/src/dm_afs_metadata.c:423 (discriminator 1)
        afs_action(block_num != AFS_INVALID_BLOCK, ret = -ENOSPC, done, "no more free blocks");
    1ec5:	ba a7 01 00 00       	mov    $0x1a7,%edx
    1eca:	48 c7 c6 00 00 00 00 	mov    $0x0,%rsi
			1ecd: R_X86_64_32S	.rodata+0xe0
    1ed1:	48 c7 c7 00 00 00 00 	mov    $0x0,%rdi
			1ed4: R_X86_64_32S	.rodata.str1.8+0xdf8
    1ed8:	31 c0                	xor    %eax,%eax
    1eda:	e8 00 00 00 00       	callq  1edf <write_ptr_blocks+0x14f>
			1edb: R_X86_64_PC32	printk-0x4
    1edf:	c7 45 a0 e4 ff ff ff 	movl   $0xffffffe4,-0x60(%rbp)
    1ee6:	eb a9                	jmp    1e91 <write_ptr_blocks+0x101>
    1ee8:	41 89 c5             	mov    %eax,%r13d
/home/austen/programming/dm-afs/src/dm_afs_metadata.c:425 (discriminator 1)
        afs_assert(!ret, done, "could not write ptr block [%d:%llu]", ret, i);
    1eeb:	89 c1                	mov    %eax,%ecx
    1eed:	4d 89 e0             	mov    %r12,%r8
    1ef0:	ba a9 01 00 00       	mov    $0x1a9,%edx
    1ef5:	48 c7 c6 00 00 00 00 	mov    $0x0,%rsi
			1ef8: R_X86_64_32S	.rodata+0xe0
    1efc:	48 c7 c7 00 00 00 00 	mov    $0x0,%rdi
			1eff: R_X86_64_32S	.rodata.str1.8+0xf28
    1f03:	31 c0                	xor    %eax,%eax
    1f05:	e8 00 00 00 00       	callq  1f0a <write_ptr_blocks+0x17a>
			1f06: R_X86_64_PC32	printk-0x4
/home/austen/programming/dm-afs/src/dm_afs_metadata.c:424 (discriminator 1)
        ret = write_page(ptr_blocks + i, context->bdev, block_num, data_sector_offset, false);
    1f0a:	44 89 6d a0          	mov    %r13d,-0x60(%rbp)
/home/austen/programming/dm-afs/src/dm_afs_metadata.c:425 (discriminator 1)
        afs_assert(!ret, done, "could not write ptr block [%d:%llu]", ret, i);
    1f0e:	eb 81                	jmp    1e91 <write_ptr_blocks+0x101>
/home/austen/programming/dm-afs/src/dm_afs_metadata.c:433 (discriminator 1)
    afs_debug("pointer blocks written");
    1f10:	ba b1 01 00 00       	mov    $0x1b1,%edx
    1f15:	48 c7 c6 00 00 00 00 	mov    $0x0,%rsi
			1f18: R_X86_64_32S	.rodata+0xe0
    1f1c:	48 c7 c7 00 00 00 00 	mov    $0x0,%rdi
			1f1f: R_X86_64_32S	.rodata.str1.8+0xf68
    1f23:	31 c0                	xor    %eax,%eax
    1f25:	e8 00 00 00 00       	callq  1f2a <write_ptr_blocks+0x19a>
			1f26: R_X86_64_PC32	printk-0x4
/home/austen/programming/dm-afs/src/dm_afs_metadata.c:434 (discriminator 1)
    ret = 0;
    1f2a:	c7 45 a0 00 00 00 00 	movl   $0x0,-0x60(%rbp)
    1f31:	e9 5b ff ff ff       	jmpq   1e91 <write_ptr_blocks+0x101>
/home/austen/programming/dm-afs/src/dm_afs_metadata.c:400 (discriminator 1)
    afs_assert(!ret, done, "could not write Artifice map blocks [%d]", ret);
    1f36:	89 c1                	mov    %eax,%ecx
    1f38:	ba 90 01 00 00       	mov    $0x190,%edx
    1f3d:	48 c7 c6 00 00 00 00 	mov    $0x0,%rsi
			1f40: R_X86_64_32S	.rodata+0xe0
    1f44:	48 c7 c7 00 00 00 00 	mov    $0x0,%rdi
			1f47: R_X86_64_32S	.rodata.str1.8+0xee0
    1f4b:	31 c0                	xor    %eax,%eax
    1f4d:	e8 00 00 00 00       	callq  1f52 <write_ptr_blocks+0x1c2>
			1f4e: R_X86_64_PC32	printk-0x4
    1f52:	e9 3a ff ff ff       	jmpq   1e91 <write_ptr_blocks+0x101>
/home/austen/programming/dm-afs/src/dm_afs_metadata.c:438
}
    1f57:	e8 00 00 00 00       	callq  1f5c <write_ptr_blocks+0x1cc>
			1f58: R_X86_64_PC32	__stack_chk_fail-0x4
    1f5c:	0f 1f 40 00          	nopl   0x0(%rax)

0000000000001f60 <chain_hash_superblock>:
chain_hash_superblock():
/home/austen/programming/dm-afs/src/dm_afs_metadata.c:440

int chain_hash_superblock(uint32_t *pass_hash[SHA1_SZ], uint32_t *sb_block, uint32_t block_device_size, struct afs_passive_fs *fs){
    1f60:	e8 00 00 00 00       	callq  1f65 <chain_hash_superblock+0x5>
			1f61: R_X86_64_PC32	__fentry__-0x4
    1f65:	55                   	push   %rbp
    1f66:	44 8b 49 08          	mov    0x8(%rcx),%r9d
    1f6a:	44 8b 06             	mov    (%rsi),%r8d
    1f6d:	48 8b 39             	mov    (%rcx),%rdi
    1f70:	48 89 e5             	mov    %rsp,%rbp
    1f73:	41 83 e9 01          	sub    $0x1,%r9d
    1f77:	45 89 ca             	mov    %r9d,%r10d
    1f7a:	41 c1 ea 1f          	shr    $0x1f,%r10d
    1f7e:	45 01 ca             	add    %r9d,%r10d
    1f81:	41 d1 fa             	sar    %r10d
binary_search():
/home/austen/programming/dm-afs/src/dm_afs_metadata.c:26 (discriminator 1)
    while (first <= last){
    1f84:	45 85 c9             	test   %r9d,%r9d
    1f87:	78 fb                	js     1f84 <chain_hash_superblock+0x24>
/home/austen/programming/dm-afs/src/dm_afs_metadata.c:26
    1f89:	44 89 ce             	mov    %r9d,%esi
/home/austen/programming/dm-afs/src/dm_afs_metadata.c:24
    middle = (first + last) / 2;
    1f8c:	44 89 d0             	mov    %r10d,%eax
/home/austen/programming/dm-afs/src/dm_afs_metadata.c:22
    first = 0;
    1f8f:	31 c9                	xor    %ecx,%ecx
    1f91:	eb 13                	jmp    1fa6 <chain_hash_superblock+0x46>
/home/austen/programming/dm-afs/src/dm_afs_metadata.c:28
            first = middle + 1;
    1f93:	8d 48 01             	lea    0x1(%rax),%ecx
/home/austen/programming/dm-afs/src/dm_afs_metadata.c:35
        middle = (first + last)/2;
    1f96:	8d 14 31             	lea    (%rcx,%rsi,1),%edx
    1f99:	89 d0                	mov    %edx,%eax
    1f9b:	c1 e8 1f             	shr    $0x1f,%eax
    1f9e:	01 d0                	add    %edx,%eax
    1fa0:	d1 f8                	sar    %eax
/home/austen/programming/dm-afs/src/dm_afs_metadata.c:26
    while (first <= last){
    1fa2:	39 f1                	cmp    %esi,%ecx
    1fa4:	7f de                	jg     1f84 <chain_hash_superblock+0x24>
/home/austen/programming/dm-afs/src/dm_afs_metadata.c:27
        if(array[middle] < value){
    1fa6:	48 63 d0             	movslq %eax,%rdx
    1fa9:	44 39 04 97          	cmp    %r8d,(%rdi,%rdx,4)
    1fad:	72 e4                	jb     1f93 <chain_hash_superblock+0x33>
/home/austen/programming/dm-afs/src/dm_afs_metadata.c:29
        } else if (array[middle] == value){
    1faf:	74 05                	je     1fb6 <chain_hash_superblock+0x56>
/home/austen/programming/dm-afs/src/dm_afs_metadata.c:33
            last = middle - 1;
    1fb1:	8d 70 ff             	lea    -0x1(%rax),%esi
    1fb4:	eb e0                	jmp    1f96 <chain_hash_superblock+0x36>
chain_hash_superblock():
/home/austen/programming/dm-afs/src/dm_afs_metadata.c:441
    while(binary_search(fs->block_list, *sb_block, fs->list_len) == -1){
    1fb6:	83 f8 ff             	cmp    $0xffffffff,%eax
    1fb9:	74 c9                	je     1f84 <chain_hash_superblock+0x24>
/home/austen/programming/dm-afs/src/dm_afs_metadata.c:445
        
    }
    return 0;
}
    1fbb:	31 c0                	xor    %eax,%eax
    1fbd:	5d                   	pop    %rbp
    1fbe:	c3                   	retq   
    1fbf:	90                   	nop

0000000000001fc0 <write_super_block>:
write_super_block():
/home/austen/programming/dm-afs/src/dm_afs_metadata.c:452
/**
 * Write the super block onto the disk.
 */
int
write_super_block(struct afs_super_block *sb, struct afs_passive_fs *fs, struct afs_private *context)
{
    1fc0:	e8 00 00 00 00       	callq  1fc5 <write_super_block+0x5>
			1fc1: R_X86_64_PC32	__fentry__-0x4
    1fc5:	55                   	push   %rbp
    1fc6:	48 89 e5             	mov    %rsp,%rbp
    1fc9:	41 57                	push   %r15
    1fcb:	41 56                	push   %r14
    1fcd:	41 55                	push   %r13
    1fcf:	41 54                	push   %r12
    1fd1:	49 89 f6             	mov    %rsi,%r14
    1fd4:	53                   	push   %rbx
/home/austen/programming/dm-afs/src/dm_afs_metadata.c:462
    int i = 0;
    uint8_t pass_hash[NUM_SUPERBLOCK_REPLICAS][SHA1_SZ];
    uint32_t block_device_size = config->bdev_size / AFS_SECTORS_PER_BLOCK;

    //hash passphrase and determine location of first superblock
    hash_sha1(context->args.passphrase, PASSPHRASE_SZ, pass_hash[0]);
    1fd5:	be 40 00 00 00       	mov    $0x40,%esi
/home/austen/programming/dm-afs/src/dm_afs_metadata.c:452
{
    1fda:	48 81 ec 08 01 00 00 	sub    $0x108,%rsp
    1fe1:	48 89 bd f8 fe ff ff 	mov    %rdi,-0x108(%rbp)
    1fe8:	48 89 95 f0 fe ff ff 	mov    %rdx,-0x110(%rbp)
    1fef:	65 48 8b 1c 25 28 00 	mov    %gs:0x28,%rbx
    1ff6:	00 00 
    1ff8:	48 89 5d c8          	mov    %rbx,-0x38(%rbp)
    1ffc:	31 db                	xor    %ebx,%ebx
/home/austen/programming/dm-afs/src/dm_afs_metadata.c:459
    uint32_t block_device_size = config->bdev_size / AFS_SECTORS_PER_BLOCK;
    1ffe:	48 8b 5a 30          	mov    0x30(%rdx),%rbx
/home/austen/programming/dm-afs/src/dm_afs_metadata.c:462
    hash_sha1(context->args.passphrase, PASSPHRASE_SZ, pass_hash[0]);
    2002:	48 8d ba 20 20 00 00 	lea    0x2020(%rdx),%rdi
    2009:	48 8d 95 20 ff ff ff 	lea    -0xe0(%rbp),%rdx
/home/austen/programming/dm-afs/src/dm_afs_metadata.c:459
    uint32_t block_device_size = config->bdev_size / AFS_SECTORS_PER_BLOCK;
    2010:	48 89 9d e8 fe ff ff 	mov    %rbx,-0x118(%rbp)
    2017:	48 c1 eb 03          	shr    $0x3,%rbx
/home/austen/programming/dm-afs/src/dm_afs_metadata.c:469
    sb_block[0] = sb_block[0] % block_device_size;

    // Reserve space for the super block location.
    // if the hashed block is available, rehash and try again if it is not
    while(binary_search(fs->block_list, sb_block[0], fs->list_len) == -1){
        hash_sha1(pass_hash[0], SHA1_SZ, pass_hash[0]);
    201b:	e8 00 00 00 00       	callq  2020 <write_super_block+0x60>
			201c: R_X86_64_PC32	hash_sha1-0x4
/home/austen/programming/dm-afs/src/dm_afs_metadata.c:471
        memcpy(&sb_block[0] , pass_hash[0], sizeof(uint32_t));
        sb_block[0] = sb_block[0] % block_device_size; 
    2020:	8b 85 20 ff ff ff    	mov    -0xe0(%rbp),%eax
    2026:	31 d2                	xor    %edx,%edx
/home/austen/programming/dm-afs/src/dm_afs_metadata.c:468
    while(binary_search(fs->block_list, sb_block[0], fs->list_len) == -1){
    2028:	4d 8b 06             	mov    (%r14),%r8
/home/austen/programming/dm-afs/src/dm_afs_metadata.c:471
        sb_block[0] = sb_block[0] % block_device_size; 
    202b:	f7 f3                	div    %ebx
binary_search():
/home/austen/programming/dm-afs/src/dm_afs_metadata.c:23
    last = length - 1;
    202d:	41 8b 46 08          	mov    0x8(%r14),%eax
    2031:	8d 48 ff             	lea    -0x1(%rax),%ecx
/home/austen/programming/dm-afs/src/dm_afs_metadata.c:24
    middle = (first + last) / 2;
    2034:	89 c8                	mov    %ecx,%eax
write_super_block():
/home/austen/programming/dm-afs/src/dm_afs_metadata.c:471
        sb_block[0] = sb_block[0] % block_device_size; 
    2036:	89 95 00 ff ff ff    	mov    %edx,-0x100(%rbp)
binary_search():
/home/austen/programming/dm-afs/src/dm_afs_metadata.c:24
    middle = (first + last) / 2;
    203c:	c1 e8 1f             	shr    $0x1f,%eax
    203f:	01 c8                	add    %ecx,%eax
    2041:	d1 f8                	sar    %eax
/home/austen/programming/dm-afs/src/dm_afs_metadata.c:26
    while (first <= last){
    2043:	85 c9                	test   %ecx,%ecx
    2045:	78 35                	js     207c <write_super_block+0xbc>
/home/austen/programming/dm-afs/src/dm_afs_metadata.c:22
    first = 0;
    2047:	31 ff                	xor    %edi,%edi
    2049:	eb 13                	jmp    205e <write_super_block+0x9e>
/home/austen/programming/dm-afs/src/dm_afs_metadata.c:28
            first = middle + 1;
    204b:	8d 78 01             	lea    0x1(%rax),%edi
/home/austen/programming/dm-afs/src/dm_afs_metadata.c:35
        middle = (first + last)/2;
    204e:	8d 34 0f             	lea    (%rdi,%rcx,1),%esi
    2051:	89 f0                	mov    %esi,%eax
    2053:	c1 e8 1f             	shr    $0x1f,%eax
    2056:	01 f0                	add    %esi,%eax
    2058:	d1 f8                	sar    %eax
/home/austen/programming/dm-afs/src/dm_afs_metadata.c:26
    while (first <= last){
    205a:	39 cf                	cmp    %ecx,%edi
    205c:	7f 1e                	jg     207c <write_super_block+0xbc>
/home/austen/programming/dm-afs/src/dm_afs_metadata.c:27
        if(array[middle] < value){
    205e:	48 63 f0             	movslq %eax,%rsi
    2061:	41 3b 14 b0          	cmp    (%r8,%rsi,4),%edx
    2065:	77 e4                	ja     204b <write_super_block+0x8b>
/home/austen/programming/dm-afs/src/dm_afs_metadata.c:29
        } else if (array[middle] == value){
    2067:	74 24                	je     208d <write_super_block+0xcd>
/home/austen/programming/dm-afs/src/dm_afs_metadata.c:33
            last = middle - 1;
    2069:	8d 48 ff             	lea    -0x1(%rax),%ecx
/home/austen/programming/dm-afs/src/dm_afs_metadata.c:35
        middle = (first + last)/2;
    206c:	8d 34 0f             	lea    (%rdi,%rcx,1),%esi
    206f:	89 f0                	mov    %esi,%eax
    2071:	c1 e8 1f             	shr    $0x1f,%eax
    2074:	01 f0                	add    %esi,%eax
    2076:	d1 f8                	sar    %eax
/home/austen/programming/dm-afs/src/dm_afs_metadata.c:26
    while (first <= last){
    2078:	39 cf                	cmp    %ecx,%edi
    207a:	7e e2                	jle    205e <write_super_block+0x9e>
write_super_block():
/home/austen/programming/dm-afs/src/dm_afs_metadata.c:469
        hash_sha1(pass_hash[0], SHA1_SZ, pass_hash[0]);
    207c:	48 8d 95 20 ff ff ff 	lea    -0xe0(%rbp),%rdx
    2083:	be 14 00 00 00       	mov    $0x14,%esi
    2088:	48 89 d7             	mov    %rdx,%rdi
    208b:	eb 8e                	jmp    201b <write_super_block+0x5b>
/home/austen/programming/dm-afs/src/dm_afs_metadata.c:468
    while(binary_search(fs->block_list, sb_block[0], fs->list_len) == -1){
    208d:	83 f8 ff             	cmp    $0xffffffff,%eax
    2090:	74 ea                	je     207c <write_super_block+0xbc>
/home/austen/programming/dm-afs/src/dm_afs_metadata.c:473
    }
    allocation_set(&context->vector, sb_block[0]);
    2092:	48 8b 85 f0 fe ff ff 	mov    -0x110(%rbp),%rax
    2099:	4c 8d bd 20 ff ff ff 	lea    -0xe0(%rbp),%r15
    20a0:	89 d6                	mov    %edx,%esi
    20a2:	4c 8d ad 00 ff ff ff 	lea    -0x100(%rbp),%r13
    20a9:	48 05 08 21 00 00    	add    $0x2108,%rax
    20af:	48 89 c7             	mov    %rax,%rdi
    20b2:	48 89 85 e8 fe ff ff 	mov    %rax,-0x118(%rbp)
    20b9:	e8 00 00 00 00       	callq  20be <write_super_block+0xfe>
			20ba: R_X86_64_PC32	allocation_set-0x4
    20be:	49 8d 87 8c 00 00 00 	lea    0x8c(%r15),%rax
    20c5:	4c 89 ad d8 fe ff ff 	mov    %r13,-0x128(%rbp)
    20cc:	48 89 85 e0 fe ff ff 	mov    %rax,-0x120(%rbp)
    20d3:	4c 89 f0             	mov    %r14,%rax
    20d6:	4d 89 fe             	mov    %r15,%r14
    20d9:	49 89 c7             	mov    %rax,%r15
    20dc:	4d 8d 66 14          	lea    0x14(%r14),%r12
/home/austen/programming/dm-afs/src/dm_afs_metadata.c:478

    //generate list of additional superblock locations
    //Iteratively hash like before
    for(i = 1; i < NUM_SUPERBLOCK_REPLICAS; i++){
        hash_sha1(pass_hash[i-1], SHA1_SZ, pass_hash[i]);
    20e0:	be 14 00 00 00       	mov    $0x14,%esi
    20e5:	4c 89 f7             	mov    %r14,%rdi
    20e8:	4c 89 e2             	mov    %r12,%rdx
/home/austen/programming/dm-afs/src/dm_afs_metadata.c:482
        memcpy(&sb_block[i], pass_hash[i], sizeof(uint32_t));
        sb_block[i] = sb_block[i] % block_device_size;
        while(binary_search(fs->block_list, sb_block[i], fs->list_len) == -1){
            hash_sha1(pass_hash[i], SHA1_SZ, pass_hash[i]);   
    20eb:	e8 00 00 00 00       	callq  20f0 <write_super_block+0x130>
			20ec: R_X86_64_PC32	hash_sha1-0x4
/home/austen/programming/dm-afs/src/dm_afs_metadata.c:484
            memcpy(&sb_block[i] , pass_hash[i], sizeof(uint32_t));
            sb_block[i] = sb_block[i] % block_device_size;
    20f0:	41 8b 46 14          	mov    0x14(%r14),%eax
binary_search():
/home/austen/programming/dm-afs/src/dm_afs_metadata.c:23
    last = length - 1;
    20f4:	41 8b 7f 08          	mov    0x8(%r15),%edi
write_super_block():
/home/austen/programming/dm-afs/src/dm_afs_metadata.c:484
            sb_block[i] = sb_block[i] % block_device_size;
    20f8:	31 d2                	xor    %edx,%edx
    20fa:	f7 f3                	div    %ebx
binary_search():
/home/austen/programming/dm-afs/src/dm_afs_metadata.c:23
    last = length - 1;
    20fc:	83 ef 01             	sub    $0x1,%edi
write_super_block():
/home/austen/programming/dm-afs/src/dm_afs_metadata.c:481
        while(binary_search(fs->block_list, sb_block[i], fs->list_len) == -1){
    20ff:	49 8b 07             	mov    (%r15),%rax
binary_search():
/home/austen/programming/dm-afs/src/dm_afs_metadata.c:24
    middle = (first + last) / 2;
    2102:	89 f9                	mov    %edi,%ecx
    2104:	c1 e9 1f             	shr    $0x1f,%ecx
    2107:	01 f9                	add    %edi,%ecx
    2109:	d1 f9                	sar    %ecx
/home/austen/programming/dm-afs/src/dm_afs_metadata.c:26
    while (first <= last){
    210b:	85 ff                	test   %edi,%edi
write_super_block():
/home/austen/programming/dm-afs/src/dm_afs_metadata.c:484
            sb_block[i] = sb_block[i] % block_device_size;
    210d:	41 89 55 04          	mov    %edx,0x4(%r13)
binary_search():
/home/austen/programming/dm-afs/src/dm_afs_metadata.c:26
    while (first <= last){
    2111:	78 2f                	js     2142 <write_super_block+0x182>
/home/austen/programming/dm-afs/src/dm_afs_metadata.c:22
    first = 0;
    2113:	45 31 c0             	xor    %r8d,%r8d
    2116:	eb 16                	jmp    212e <write_super_block+0x16e>
/home/austen/programming/dm-afs/src/dm_afs_metadata.c:28
            first = middle + 1;
    2118:	44 8d 41 01          	lea    0x1(%rcx),%r8d
/home/austen/programming/dm-afs/src/dm_afs_metadata.c:35
        middle = (first + last)/2;
    211c:	41 8d 34 38          	lea    (%r8,%rdi,1),%esi
    2120:	89 f1                	mov    %esi,%ecx
    2122:	c1 e9 1f             	shr    $0x1f,%ecx
    2125:	01 f1                	add    %esi,%ecx
    2127:	d1 f9                	sar    %ecx
/home/austen/programming/dm-afs/src/dm_afs_metadata.c:26
    while (first <= last){
    2129:	41 39 f8             	cmp    %edi,%r8d
    212c:	7f 14                	jg     2142 <write_super_block+0x182>
/home/austen/programming/dm-afs/src/dm_afs_metadata.c:27
        if(array[middle] < value){
    212e:	48 63 f1             	movslq %ecx,%rsi
    2131:	39 14 b0             	cmp    %edx,(%rax,%rsi,4)
    2134:	72 e2                	jb     2118 <write_super_block+0x158>
/home/austen/programming/dm-afs/src/dm_afs_metadata.c:29
        } else if (array[middle] == value){
    2136:	74 05                	je     213d <write_super_block+0x17d>
/home/austen/programming/dm-afs/src/dm_afs_metadata.c:33
            last = middle - 1;
    2138:	8d 79 ff             	lea    -0x1(%rcx),%edi
    213b:	eb df                	jmp    211c <write_super_block+0x15c>
write_super_block():
/home/austen/programming/dm-afs/src/dm_afs_metadata.c:481
        while(binary_search(fs->block_list, sb_block[i], fs->list_len) == -1){
    213d:	83 f9 ff             	cmp    $0xffffffff,%ecx
    2140:	75 0d                	jne    214f <write_super_block+0x18f>
/home/austen/programming/dm-afs/src/dm_afs_metadata.c:482
            hash_sha1(pass_hash[i], SHA1_SZ, pass_hash[i]);   
    2142:	4c 89 e2             	mov    %r12,%rdx
    2145:	be 14 00 00 00       	mov    $0x14,%esi
    214a:	4c 89 e7             	mov    %r12,%rdi
    214d:	eb 9c                	jmp    20eb <write_super_block+0x12b>
/home/austen/programming/dm-afs/src/dm_afs_metadata.c:486 (discriminator 2)
        }
        allocation_set(&context->vector, sb_block[i]);
    214f:	48 8b bd e8 fe ff ff 	mov    -0x118(%rbp),%rdi
    2156:	89 d6                	mov    %edx,%esi
    2158:	49 83 c5 04          	add    $0x4,%r13
    215c:	4d 89 e6             	mov    %r12,%r14
    215f:	e8 00 00 00 00       	callq  2164 <write_super_block+0x1a4>
			2160: R_X86_64_PC32	allocation_set-0x4
/home/austen/programming/dm-afs/src/dm_afs_metadata.c:477 (discriminator 2)
    for(i = 1; i < NUM_SUPERBLOCK_REPLICAS; i++){
    2164:	4c 39 a5 e0 fe ff ff 	cmp    %r12,-0x120(%rbp)
    216b:	0f 85 6b ff ff ff    	jne    20dc <write_super_block+0x11c>
/home/austen/programming/dm-afs/src/dm_afs_metadata.c:490
    }

    // Build the Artifice Map.
    ret = afs_create_map(context);
    2171:	48 8b bd f0 fe ff ff 	mov    -0x110(%rbp),%rdi
    2178:	4d 89 fe             	mov    %r15,%r14
    217b:	e8 00 00 00 00       	callq  2180 <write_super_block+0x1c0>
			217c: R_X86_64_PC32	afs_create_map-0x4
/home/austen/programming/dm-afs/src/dm_afs_metadata.c:491
    afs_assert(!ret, map_err, "could not create Artifice map [%d]", ret);
    2180:	85 c0                	test   %eax,%eax
/home/austen/programming/dm-afs/src/dm_afs_metadata.c:490
    ret = afs_create_map(context);
    2182:	41 89 c5             	mov    %eax,%r13d
/home/austen/programming/dm-afs/src/dm_afs_metadata.c:491
    afs_assert(!ret, map_err, "could not create Artifice map [%d]", ret);
    2185:	0f 85 5f 01 00 00    	jne    22ea <write_super_block+0x32a>
/home/austen/programming/dm-afs/src/dm_afs_metadata.c:494

    // Build the Artifice Map Blocks.
    ret = afs_create_map_blocks(context);
    218b:	48 8b bd f0 fe ff ff 	mov    -0x110(%rbp),%rdi
    2192:	e8 00 00 00 00       	callq  2197 <write_super_block+0x1d7>
			2193: R_X86_64_PC32	afs_create_map_blocks-0x4
/home/austen/programming/dm-afs/src/dm_afs_metadata.c:495
    afs_assert(!ret, map_block_err, "could not create Artifice map blocks [%d]", ret);
    2197:	85 c0                	test   %eax,%eax
/home/austen/programming/dm-afs/src/dm_afs_metadata.c:494
    ret = afs_create_map_blocks(context);
    2199:	41 89 c5             	mov    %eax,%r13d
/home/austen/programming/dm-afs/src/dm_afs_metadata.c:495
    afs_assert(!ret, map_block_err, "could not create Artifice map blocks [%d]", ret);
    219c:	0f 85 66 01 00 00    	jne    2308 <write_super_block+0x348>
/home/austen/programming/dm-afs/src/dm_afs_metadata.c:498

    // Allocate the Artifice Pointer Blocks.
    ptr_blocks = kmalloc(config->num_ptr_blocks * sizeof(*ptr_blocks), GFP_KERNEL);
    21a2:	48 8b 85 f0 fe ff ff 	mov    -0x110(%rbp),%rax
kmalloc():
/usr/src/linux-headers-4.15.0-54-generic/./include/linux/slab.h:504
    21a9:	be c0 00 40 01       	mov    $0x14000c0,%esi
write_super_block():
/home/austen/programming/dm-afs/src/dm_afs_metadata.c:498
    21ae:	8b 78 20             	mov    0x20(%rax),%edi
    21b1:	48 c1 e7 0c          	shl    $0xc,%rdi
kmalloc():
/usr/src/linux-headers-4.15.0-54-generic/./include/linux/slab.h:504
    21b5:	e8 00 00 00 00       	callq  21ba <write_super_block+0x1fa>
			21b6: R_X86_64_PC32	__kmalloc-0x4
write_super_block():
/home/austen/programming/dm-afs/src/dm_afs_metadata.c:499
    afs_action(ptr_blocks, ret = -ENOMEM, ptr_block_err, "could not allocate ptr_blocks [%d]", ret);
    21ba:	48 85 c0             	test   %rax,%rax
    21bd:	0f 84 76 01 00 00    	je     2339 <write_super_block+0x379>
/home/austen/programming/dm-afs/src/dm_afs_metadata.c:500
    memset(ptr_blocks, 0, config->num_ptr_blocks * sizeof(*ptr_blocks));
    21c3:	48 8b 9d f0 fe ff ff 	mov    -0x110(%rbp),%rbx
memset():
/usr/src/linux-headers-4.15.0-54-generic/./include/linux/string.h:329
    21ca:	31 f6                	xor    %esi,%esi
    21cc:	48 89 c7             	mov    %rax,%rdi
write_super_block():
/home/austen/programming/dm-afs/src/dm_afs_metadata.c:500
    21cf:	8b 53 20             	mov    0x20(%rbx),%edx
    21d2:	48 c1 e2 0c          	shl    $0xc,%rdx
memset():
/usr/src/linux-headers-4.15.0-54-generic/./include/linux/string.h:329
    21d6:	e8 00 00 00 00       	callq  21db <write_super_block+0x21b>
			21d7: R_X86_64_PC32	memset-0x4
write_super_block():
/home/austen/programming/dm-afs/src/dm_afs_metadata.c:501
    context->afs_ptr_blocks = ptr_blocks;
    21db:	48 89 83 60 b0 03 00 	mov    %rax,0x3b060(%rbx)
/home/austen/programming/dm-afs/src/dm_afs_metadata.c:504

    // Build the Artifice Pointer Blocks.
    sb->first_ptr_block = AFS_INVALID_BLOCK;
    21e2:	48 8b 85 f8 fe ff ff 	mov    -0x108(%rbp),%rax
/home/austen/programming/dm-afs/src/dm_afs_metadata.c:505
    ret = write_ptr_blocks(sb, fs, context);
    21e9:	48 89 da             	mov    %rbx,%rdx
    21ec:	4c 89 fe             	mov    %r15,%rsi
/home/austen/programming/dm-afs/src/dm_afs_metadata.c:504
    sb->first_ptr_block = AFS_INVALID_BLOCK;
    21ef:	c7 80 fc 0f 00 00 ff 	movl   $0xffffffff,0xffc(%rax)
    21f6:	ff ff ff 
/home/austen/programming/dm-afs/src/dm_afs_metadata.c:505
    ret = write_ptr_blocks(sb, fs, context);
    21f9:	48 89 c7             	mov    %rax,%rdi
    21fc:	e8 00 00 00 00       	callq  2201 <write_super_block+0x241>
			21fd: R_X86_64_PC32	write_ptr_blocks-0x4
/home/austen/programming/dm-afs/src/dm_afs_metadata.c:506
    afs_assert(!ret, ptr_block_err, "could not write pointer blocks [%d]", ret);
    2201:	85 c0                	test   %eax,%eax
/home/austen/programming/dm-afs/src/dm_afs_metadata.c:505
    ret = write_ptr_blocks(sb, fs, context);
    2203:	41 89 c5             	mov    %eax,%r13d
/home/austen/programming/dm-afs/src/dm_afs_metadata.c:506
    afs_assert(!ret, ptr_block_err, "could not write pointer blocks [%d]", ret);
    2206:	0f 85 67 01 00 00    	jne    2373 <write_super_block+0x3b3>
/home/austen/programming/dm-afs/src/dm_afs_metadata.c:512

    // 1. Take note of the instance size.
    // 2. Take note of the entropy directory for the instance.
    // 3. Hash the super block.
    // 4. Write each block to disk.
    sb->instance_size = config->instance_size;
    220c:	4c 8b ad f0 fe ff ff 	mov    -0x110(%rbp),%r13
    2213:	48 8b 9d f8 fe ff ff 	mov    -0x108(%rbp),%rbx
strncpy():
/usr/src/linux-headers-4.15.0-54-generic/./include/linux/string.h:245
    221a:	ba 40 00 00 00       	mov    $0x40,%edx
write_super_block():
/home/austen/programming/dm-afs/src/dm_afs_metadata.c:518
    strncpy(sb->entropy_dir, context->args.entropy_dir, ENTROPY_DIR_SZ);
    hash_sha256((uint8_t *)sb + SHA256_SZ, sizeof(*sb) - SHA256_SZ, sb->sb_hash);
    for(i = 0; i < NUM_SUPERBLOCK_REPLICAS; i++){
        ret = write_page(sb, context->bdev, fs->block_list[sb_block[i]], context->passive_fs.data_start_off, false);
        afs_assert(!ret, sb_err, "could not write super block [%d]", ret);
        afs_debug("super blocks written to disk [block: %u]", sb_block[i]);
    221f:	49 c7 c7 00 00 00 00 	mov    $0x0,%r15
			2222: R_X86_64_32S	.rodata+0xc0
/home/austen/programming/dm-afs/src/dm_afs_metadata.c:512
    sb->instance_size = config->instance_size;
    2226:	49 8b 45 28          	mov    0x28(%r13),%rax
strncpy():
/usr/src/linux-headers-4.15.0-54-generic/./include/linux/string.h:245
    222a:	48 8d 7b 40          	lea    0x40(%rbx),%rdi
    222e:	49 8d b5 c0 20 00 00 	lea    0x20c0(%r13),%rsi
write_super_block():
/home/austen/programming/dm-afs/src/dm_afs_metadata.c:512
    2235:	48 89 43 34          	mov    %rax,0x34(%rbx)
strncpy():
/usr/src/linux-headers-4.15.0-54-generic/./include/linux/string.h:245
    2239:	e8 00 00 00 00       	callq  223e <write_super_block+0x27e>
			223a: R_X86_64_PC32	strncpy-0x4
write_super_block():
/home/austen/programming/dm-afs/src/dm_afs_metadata.c:514
    hash_sha256((uint8_t *)sb + SHA256_SZ, sizeof(*sb) - SHA256_SZ, sb->sb_hash);
    223e:	48 8d 7b 20          	lea    0x20(%rbx),%rdi
    2242:	48 89 da             	mov    %rbx,%rdx
    2245:	be e0 0f 00 00       	mov    $0xfe0,%esi
    224a:	e8 00 00 00 00       	callq  224f <write_super_block+0x28f>
			224b: R_X86_64_PC32	hash_sha256-0x4
    224f:	48 8b 9d d8 fe ff ff 	mov    -0x128(%rbp),%rbx
    2256:	4c 8d 63 20          	lea    0x20(%rbx),%r12
/home/austen/programming/dm-afs/src/dm_afs_metadata.c:518
        afs_debug("super blocks written to disk [block: %u]", sb_block[i]);
    225a:	4c 89 a5 e8 fe ff ff 	mov    %r12,-0x118(%rbp)
/home/austen/programming/dm-afs/src/dm_afs_metadata.c:516
        ret = write_page(sb, context->bdev, fs->block_list[sb_block[i]], context->passive_fs.data_start_off, false);
    2261:	8b 13                	mov    (%rbx),%edx
    2263:	49 8b 06             	mov    (%r14),%rax
    2266:	45 31 c0             	xor    %r8d,%r8d
    2269:	41 8b 8d 14 20 00 00 	mov    0x2014(%r13),%ecx
    2270:	49 8b 75 08          	mov    0x8(%r13),%rsi
    2274:	48 8b bd f8 fe ff ff 	mov    -0x108(%rbp),%rdi
    227b:	49 89 d4             	mov    %rdx,%r12
    227e:	8b 14 90             	mov    (%rax,%rdx,4),%edx
    2281:	e8 00 00 00 00       	callq  2286 <write_super_block+0x2c6>
			2282: R_X86_64_PC32	write_page-0x4
/home/austen/programming/dm-afs/src/dm_afs_metadata.c:517
        afs_assert(!ret, sb_err, "could not write super block [%d]", ret);
    2286:	85 c0                	test   %eax,%eax
/home/austen/programming/dm-afs/src/dm_afs_metadata.c:516
        ret = write_page(sb, context->bdev, fs->block_list[sb_block[i]], context->passive_fs.data_start_off, false);
    2288:	41 89 c0             	mov    %eax,%r8d
/home/austen/programming/dm-afs/src/dm_afs_metadata.c:517
        afs_assert(!ret, sb_err, "could not write super block [%d]", ret);
    228b:	0f 85 00 01 00 00    	jne    2391 <write_super_block+0x3d1>
/home/austen/programming/dm-afs/src/dm_afs_metadata.c:518
        afs_debug("super blocks written to disk [block: %u]", sb_block[i]);
    2291:	8b 05 00 00 00 00    	mov    0x0(%rip),%eax        # 2297 <write_super_block+0x2d7>
			2293: R_X86_64_PC32	afs_debug_mode-0x4
    2297:	85 c0                	test   %eax,%eax
    2299:	0f 85 27 01 00 00    	jne    23c6 <write_super_block+0x406>
    229f:	48 83 c3 04          	add    $0x4,%rbx
/home/austen/programming/dm-afs/src/dm_afs_metadata.c:515 (discriminator 2)
    for(i = 0; i < NUM_SUPERBLOCK_REPLICAS; i++){
    22a3:	48 39 9d e8 fe ff ff 	cmp    %rbx,-0x118(%rbp)
    22aa:	75 b5                	jne    2261 <write_super_block+0x2a1>
/home/austen/programming/dm-afs/src/dm_afs_metadata.c:522
    }

    // We don't need the map blocks anymore.
    vfree(context->afs_map_blocks);
    22ac:	48 8b 85 f0 fe ff ff 	mov    -0x110(%rbp),%rax
    22b3:	45 89 c5             	mov    %r8d,%r13d
    22b6:	48 8b b8 58 b0 03 00 	mov    0x3b058(%rax),%rdi
    22bd:	e8 00 00 00 00       	callq  22c2 <write_super_block+0x302>
			22be: R_X86_64_PC32	vfree-0x4
/home/austen/programming/dm-afs/src/dm_afs_metadata.c:536
map_block_err:
    vfree(context->afs_map);

map_err:
    return ret;
}
    22c2:	48 8b 5d c8          	mov    -0x38(%rbp),%rbx
    22c6:	65 48 33 1c 25 28 00 	xor    %gs:0x28,%rbx
    22cd:	00 00 
    22cf:	44 89 e8             	mov    %r13d,%eax
    22d2:	0f 85 1a 01 00 00    	jne    23f2 <write_super_block+0x432>
    22d8:	48 81 c4 08 01 00 00 	add    $0x108,%rsp
    22df:	5b                   	pop    %rbx
    22e0:	41 5c                	pop    %r12
    22e2:	41 5d                	pop    %r13
    22e4:	41 5e                	pop    %r14
    22e6:	41 5f                	pop    %r15
    22e8:	5d                   	pop    %rbp
    22e9:	c3                   	retq   
/home/austen/programming/dm-afs/src/dm_afs_metadata.c:491 (discriminator 1)
    afs_assert(!ret, map_err, "could not create Artifice map [%d]", ret);
    22ea:	89 c1                	mov    %eax,%ecx
    22ec:	ba eb 01 00 00       	mov    $0x1eb,%edx
    22f1:	48 c7 c6 00 00 00 00 	mov    $0x0,%rsi
			22f4: R_X86_64_32S	.rodata+0xc0
    22f8:	48 c7 c7 00 00 00 00 	mov    $0x0,%rdi
			22fb: R_X86_64_32S	.rodata.str1.8+0xf98
    22ff:	31 c0                	xor    %eax,%eax
    2301:	e8 00 00 00 00       	callq  2306 <write_super_block+0x346>
			2302: R_X86_64_PC32	printk-0x4
    2306:	eb ba                	jmp    22c2 <write_super_block+0x302>
/home/austen/programming/dm-afs/src/dm_afs_metadata.c:495 (discriminator 1)
    afs_assert(!ret, map_block_err, "could not create Artifice map blocks [%d]", ret);
    2308:	89 c1                	mov    %eax,%ecx
    230a:	ba ef 01 00 00       	mov    $0x1ef,%edx
    230f:	48 c7 c6 00 00 00 00 	mov    $0x0,%rsi
			2312: R_X86_64_32S	.rodata+0xc0
    2316:	48 c7 c7 00 00 00 00 	mov    $0x0,%rdi
			2319: R_X86_64_32S	.rodata.str1.8+0xfd8
    231d:	31 c0                	xor    %eax,%eax
    231f:	e8 00 00 00 00       	callq  2324 <write_super_block+0x364>
			2320: R_X86_64_PC32	printk-0x4
/home/austen/programming/dm-afs/src/dm_afs_metadata.c:532
    vfree(context->afs_map);
    2324:	48 8b 85 f0 fe ff ff 	mov    -0x110(%rbp),%rax
    232b:	48 8b b8 50 b0 03 00 	mov    0x3b050(%rax),%rdi
    2332:	e8 00 00 00 00       	callq  2337 <write_super_block+0x377>
			2333: R_X86_64_PC32	vfree-0x4
    2337:	eb 89                	jmp    22c2 <write_super_block+0x302>
/home/austen/programming/dm-afs/src/dm_afs_metadata.c:499 (discriminator 1)
    afs_action(ptr_blocks, ret = -ENOMEM, ptr_block_err, "could not allocate ptr_blocks [%d]", ret);
    2339:	b9 f4 ff ff ff       	mov    $0xfffffff4,%ecx
    233e:	ba f3 01 00 00       	mov    $0x1f3,%edx
    2343:	48 c7 c6 00 00 00 00 	mov    $0x0,%rsi
			2346: R_X86_64_32S	.rodata+0xc0
    234a:	48 c7 c7 00 00 00 00 	mov    $0x0,%rdi
			234d: R_X86_64_32S	.rodata.str1.8+0x1020
    2351:	31 c0                	xor    %eax,%eax
    2353:	41 bd f4 ff ff ff    	mov    $0xfffffff4,%r13d
    2359:	e8 00 00 00 00       	callq  235e <write_super_block+0x39e>
			235a: R_X86_64_PC32	printk-0x4
/home/austen/programming/dm-afs/src/dm_afs_metadata.c:529
    vfree(context->afs_map_blocks);
    235e:	48 8b 85 f0 fe ff ff 	mov    -0x110(%rbp),%rax
    2365:	48 8b b8 58 b0 03 00 	mov    0x3b058(%rax),%rdi
    236c:	e8 00 00 00 00       	callq  2371 <write_super_block+0x3b1>
			236d: R_X86_64_PC32	vfree-0x4
    2371:	eb b1                	jmp    2324 <write_super_block+0x364>
/home/austen/programming/dm-afs/src/dm_afs_metadata.c:506 (discriminator 1)
    afs_assert(!ret, ptr_block_err, "could not write pointer blocks [%d]", ret);
    2373:	89 c1                	mov    %eax,%ecx
    2375:	ba fa 01 00 00       	mov    $0x1fa,%edx
    237a:	48 c7 c6 00 00 00 00 	mov    $0x0,%rsi
			237d: R_X86_64_32S	.rodata+0xc0
    2381:	48 c7 c7 00 00 00 00 	mov    $0x0,%rdi
			2384: R_X86_64_32S	.rodata.str1.8+0x1060
    2388:	31 c0                	xor    %eax,%eax
    238a:	e8 00 00 00 00       	callq  238f <write_super_block+0x3cf>
			238b: R_X86_64_PC32	printk-0x4
    238f:	eb cd                	jmp    235e <write_super_block+0x39e>
    2391:	41 89 c5             	mov    %eax,%r13d
/home/austen/programming/dm-afs/src/dm_afs_metadata.c:517 (discriminator 1)
        afs_assert(!ret, sb_err, "could not write super block [%d]", ret);
    2394:	44 89 c1             	mov    %r8d,%ecx
    2397:	ba 05 02 00 00       	mov    $0x205,%edx
    239c:	48 c7 c6 00 00 00 00 	mov    $0x0,%rsi
			239f: R_X86_64_32S	.rodata+0xc0
    23a3:	48 c7 c7 00 00 00 00 	mov    $0x0,%rdi
			23a6: R_X86_64_32S	.rodata.str1.8+0x10a0
    23aa:	31 c0                	xor    %eax,%eax
    23ac:	e8 00 00 00 00       	callq  23b1 <write_super_block+0x3f1>
			23ad: R_X86_64_PC32	printk-0x4
/home/austen/programming/dm-afs/src/dm_afs_metadata.c:526 (discriminator 1)
    kfree(context->afs_ptr_blocks);
    23b1:	48 8b 85 f0 fe ff ff 	mov    -0x110(%rbp),%rax
    23b8:	48 8b b8 60 b0 03 00 	mov    0x3b060(%rax),%rdi
    23bf:	e8 00 00 00 00       	callq  23c4 <write_super_block+0x404>
			23c0: R_X86_64_PC32	kfree-0x4
    23c4:	eb 98                	jmp    235e <write_super_block+0x39e>
/home/austen/programming/dm-afs/src/dm_afs_metadata.c:518 (discriminator 1)
        afs_debug("super blocks written to disk [block: %u]", sb_block[i]);
    23c6:	44 89 e1             	mov    %r12d,%ecx
    23c9:	ba 06 02 00 00       	mov    $0x206,%edx
    23ce:	4c 89 fe             	mov    %r15,%rsi
    23d1:	48 c7 c7 00 00 00 00 	mov    $0x0,%rdi
			23d4: R_X86_64_32S	.rodata.str1.8+0x10e0
    23d8:	31 c0                	xor    %eax,%eax
    23da:	44 89 85 e0 fe ff ff 	mov    %r8d,-0x120(%rbp)
    23e1:	e8 00 00 00 00       	callq  23e6 <write_super_block+0x426>
			23e2: R_X86_64_PC32	printk-0x4
    23e6:	44 8b 85 e0 fe ff ff 	mov    -0x120(%rbp),%r8d
    23ed:	e9 ad fe ff ff       	jmpq   229f <write_super_block+0x2df>
/home/austen/programming/dm-afs/src/dm_afs_metadata.c:536
}
    23f2:	e8 00 00 00 00       	callq  23f7 <write_super_block+0x437>
			23f3: R_X86_64_PC32	__stack_chk_fail-0x4
    23f7:	66 0f 1f 84 00 00 00 	nopw   0x0(%rax,%rax,1)
    23fe:	00 00 

0000000000002400 <find_super_block>:
find_super_block():
/home/austen/programming/dm-afs/src/dm_afs_metadata.c:602
 * Find the super block on the disk.
 *
 */
int
find_super_block(struct afs_super_block *sb, struct afs_private *context)
{
    2400:	e8 00 00 00 00       	callq  2405 <find_super_block+0x5>
			2401: R_X86_64_PC32	__fentry__-0x4
    2405:	55                   	push   %rbp
    2406:	48 89 e5             	mov    %rsp,%rbp
    2409:	41 57                	push   %r15
    240b:	41 56                	push   %r14
    240d:	41 55                	push   %r13
    240f:	41 54                	push   %r12
    2411:	49 89 fd             	mov    %rdi,%r13
    2414:	53                   	push   %rbx
/home/austen/programming/dm-afs/src/dm_afs_metadata.c:612
    int ret = 0;
    uint32_t sb_tries = 0;
    uint8_t pass_hash[NUM_SUPERBLOCK_REPLICAS][SHA1_SZ];
    uint32_t block_device_size = config->bdev_size / AFS_SECTORS_PER_BLOCK;

    hash_sha1(context->args.passphrase, PASSPHRASE_SZ, pass_hash[0]);
    2415:	48 8d be 20 20 00 00 	lea    0x2020(%rsi),%rdi
    241c:	48 8d 95 00 ff ff ff 	lea    -0x100(%rbp),%rdx
/home/austen/programming/dm-afs/src/dm_afs_metadata.c:602
{
    2423:	49 89 f6             	mov    %rsi,%r14
/home/austen/programming/dm-afs/src/dm_afs_metadata.c:608
    uint32_t sb_tries = 0;
    2426:	31 db                	xor    %ebx,%ebx
/home/austen/programming/dm-afs/src/dm_afs_metadata.c:602
{
    2428:	48 81 ec 08 01 00 00 	sub    $0x108,%rsp
/home/austen/programming/dm-afs/src/dm_afs_metadata.c:610
    uint32_t block_device_size = config->bdev_size / AFS_SECTORS_PER_BLOCK;
    242f:	4c 8b 66 30          	mov    0x30(%rsi),%r12
/home/austen/programming/dm-afs/src/dm_afs_metadata.c:612
    hash_sha1(context->args.passphrase, PASSPHRASE_SZ, pass_hash[0]);
    2433:	be 40 00 00 00       	mov    $0x40,%esi
/home/austen/programming/dm-afs/src/dm_afs_metadata.c:602
{
    2438:	65 48 8b 04 25 28 00 	mov    %gs:0x28,%rax
    243f:	00 00 
    2441:	48 89 45 c8          	mov    %rax,-0x38(%rbp)
    2445:	31 c0                	xor    %eax,%eax
/home/austen/programming/dm-afs/src/dm_afs_metadata.c:612
    hash_sha1(context->args.passphrase, PASSPHRASE_SZ, pass_hash[0]);
    2447:	e8 00 00 00 00       	callq  244c <find_super_block+0x4c>
			2448: R_X86_64_PC32	hash_sha1-0x4
/home/austen/programming/dm-afs/src/dm_afs_metadata.c:614
    memcpy(&sb_block[0], pass_hash[0], sizeof(uint32_t));
    sb_block[0] = sb_block[0] % block_device_size;
    244c:	8b 85 00 ff ff ff    	mov    -0x100(%rbp),%eax
/home/austen/programming/dm-afs/src/dm_afs_metadata.c:610
    uint32_t block_device_size = config->bdev_size / AFS_SECTORS_PER_BLOCK;
    2452:	49 c1 ec 03          	shr    $0x3,%r12
/home/austen/programming/dm-afs/src/dm_afs_metadata.c:614
    sb_block[0] = sb_block[0] % block_device_size;
    2456:	31 d2                	xor    %edx,%edx
    2458:	41 f7 f4             	div    %r12d
/home/austen/programming/dm-afs/src/dm_afs_metadata.c:630
        //attempt to read superblock
        ret = read_page(sb, context->bdev, context->passive_fs.block_list[sb_block[0]], context->passive_fs.data_start_off, false);
        afs_assert(!ret, err, "could not read super block page [%d]", ret);

        // Check for corruption.
        hash_sha256((uint8_t *)sb + SHA256_SZ, sizeof(*sb) - SHA256_SZ, sb_digest);
    245b:	49 8d 45 20          	lea    0x20(%r13),%rax
    245f:	48 89 85 f8 fe ff ff 	mov    %rax,-0x108(%rbp)
/home/austen/programming/dm-afs/src/dm_afs_metadata.c:614
    sb_block[0] = sb_block[0] % block_device_size;
    2466:	41 89 d7             	mov    %edx,%r15d
binary_search():
/home/austen/programming/dm-afs/src/dm_afs_metadata.c:23
    last = length - 1;
    2469:	41 8b 86 08 20 00 00 	mov    0x2008(%r14),%eax
find_super_block():
/home/austen/programming/dm-afs/src/dm_afs_metadata.c:619
        while(binary_search(context->passive_fs.block_list, sb_block[0], context->passive_fs.list_len) == -1){
    2470:	49 8b b6 00 20 00 00 	mov    0x2000(%r14),%rsi
binary_search():
/home/austen/programming/dm-afs/src/dm_afs_metadata.c:23
    last = length - 1;
    2477:	83 e8 01             	sub    $0x1,%eax
/home/austen/programming/dm-afs/src/dm_afs_metadata.c:24
    middle = (first + last) / 2;
    247a:	89 c2                	mov    %eax,%edx
    247c:	c1 ea 1f             	shr    $0x1f,%edx
    247f:	01 c2                	add    %eax,%edx
    2481:	d1 fa                	sar    %edx
/home/austen/programming/dm-afs/src/dm_afs_metadata.c:26
    while (first <= last){
    2483:	85 c0                	test   %eax,%eax
    2485:	78 35                	js     24bc <find_super_block+0xbc>
/home/austen/programming/dm-afs/src/dm_afs_metadata.c:22
    first = 0;
    2487:	31 ff                	xor    %edi,%edi
    2489:	eb 13                	jmp    249e <find_super_block+0x9e>
/home/austen/programming/dm-afs/src/dm_afs_metadata.c:28
            first = middle + 1;
    248b:	8d 7a 01             	lea    0x1(%rdx),%edi
/home/austen/programming/dm-afs/src/dm_afs_metadata.c:35
        middle = (first + last)/2;
    248e:	8d 0c 07             	lea    (%rdi,%rax,1),%ecx
    2491:	89 ca                	mov    %ecx,%edx
    2493:	c1 ea 1f             	shr    $0x1f,%edx
    2496:	01 ca                	add    %ecx,%edx
    2498:	d1 fa                	sar    %edx
/home/austen/programming/dm-afs/src/dm_afs_metadata.c:26
    while (first <= last){
    249a:	39 c7                	cmp    %eax,%edi
    249c:	7f 1e                	jg     24bc <find_super_block+0xbc>
/home/austen/programming/dm-afs/src/dm_afs_metadata.c:27
        if(array[middle] < value){
    249e:	48 63 ca             	movslq %edx,%rcx
    24a1:	44 39 3c 8e          	cmp    %r15d,(%rsi,%rcx,4)
    24a5:	72 e4                	jb     248b <find_super_block+0x8b>
/home/austen/programming/dm-afs/src/dm_afs_metadata.c:29
        } else if (array[middle] == value){
    24a7:	74 3a                	je     24e3 <find_super_block+0xe3>
/home/austen/programming/dm-afs/src/dm_afs_metadata.c:33
            last = middle - 1;
    24a9:	8d 42 ff             	lea    -0x1(%rdx),%eax
/home/austen/programming/dm-afs/src/dm_afs_metadata.c:35
        middle = (first + last)/2;
    24ac:	8d 0c 07             	lea    (%rdi,%rax,1),%ecx
    24af:	89 ca                	mov    %ecx,%edx
    24b1:	c1 ea 1f             	shr    $0x1f,%edx
    24b4:	01 ca                	add    %ecx,%edx
    24b6:	d1 fa                	sar    %edx
/home/austen/programming/dm-afs/src/dm_afs_metadata.c:26
    while (first <= last){
    24b8:	39 c7                	cmp    %eax,%edi
    24ba:	7e e2                	jle    249e <find_super_block+0x9e>
find_super_block():
/home/austen/programming/dm-afs/src/dm_afs_metadata.c:620
            hash_sha1(pass_hash[0], SHA1_SZ, pass_hash[0]);
    24bc:	48 8d 95 00 ff ff ff 	lea    -0x100(%rbp),%rdx
    24c3:	be 14 00 00 00       	mov    $0x14,%esi
/home/austen/programming/dm-afs/src/dm_afs_metadata.c:623
            sb_tries++;
    24c8:	83 c3 01             	add    $0x1,%ebx
/home/austen/programming/dm-afs/src/dm_afs_metadata.c:620
            hash_sha1(pass_hash[0], SHA1_SZ, pass_hash[0]);
    24cb:	48 89 d7             	mov    %rdx,%rdi
    24ce:	e8 00 00 00 00       	callq  24d3 <find_super_block+0xd3>
			24cf: R_X86_64_PC32	hash_sha1-0x4
/home/austen/programming/dm-afs/src/dm_afs_metadata.c:622
            sb_block[0] = sb_block[0] % block_device_size;
    24d3:	8b 85 00 ff ff ff    	mov    -0x100(%rbp),%eax
    24d9:	31 d2                	xor    %edx,%edx
    24db:	41 f7 f4             	div    %r12d
    24de:	41 89 d7             	mov    %edx,%r15d
    24e1:	eb 86                	jmp    2469 <find_super_block+0x69>
/home/austen/programming/dm-afs/src/dm_afs_metadata.c:619
        while(binary_search(context->passive_fs.block_list, sb_block[0], context->passive_fs.list_len) == -1){
    24e3:	83 fa ff             	cmp    $0xffffffff,%edx
    24e6:	74 d4                	je     24bc <find_super_block+0xbc>
/home/austen/programming/dm-afs/src/dm_afs_metadata.c:626
        ret = read_page(sb, context->bdev, context->passive_fs.block_list[sb_block[0]], context->passive_fs.data_start_off, false);
    24e8:	44 89 f8             	mov    %r15d,%eax
    24eb:	41 8b 8e 14 20 00 00 	mov    0x2014(%r14),%ecx
    24f2:	45 31 c0             	xor    %r8d,%r8d
    24f5:	8b 14 86             	mov    (%rsi,%rax,4),%edx
    24f8:	49 8b 76 08          	mov    0x8(%r14),%rsi
    24fc:	4c 89 ef             	mov    %r13,%rdi
    24ff:	e8 00 00 00 00       	callq  2504 <find_super_block+0x104>
			2500: R_X86_64_PC32	read_page-0x4
/home/austen/programming/dm-afs/src/dm_afs_metadata.c:627
        afs_assert(!ret, err, "could not read super block page [%d]", ret);
    2504:	85 c0                	test   %eax,%eax
    2506:	0f 85 54 03 00 00    	jne    2860 <find_super_block+0x460>
/home/austen/programming/dm-afs/src/dm_afs_metadata.c:630
        hash_sha256((uint8_t *)sb + SHA256_SZ, sizeof(*sb) - SHA256_SZ, sb_digest);
    250c:	48 8b bd f8 fe ff ff 	mov    -0x108(%rbp),%rdi
    2513:	48 8d 55 a0          	lea    -0x60(%rbp),%rdx
    2517:	be e0 0f 00 00       	mov    $0xfe0,%esi
    251c:	e8 00 00 00 00       	callq  2521 <find_super_block+0x121>
			251d: R_X86_64_PC32	hash_sha256-0x4
memcmp():
/usr/src/linux-headers-4.15.0-54-generic/./include/linux/string.h:385
    2521:	49 8b 45 00          	mov    0x0(%r13),%rax
    2525:	49 8b 55 08          	mov    0x8(%r13),%rdx
    2529:	48 33 45 a0          	xor    -0x60(%rbp),%rax
    252d:	48 33 55 a8          	xor    -0x58(%rbp),%rdx
    2531:	48 09 c2             	or     %rax,%rdx
    2534:	0f 85 e7 01 00 00    	jne    2721 <find_super_block+0x321>
    253a:	49 8b 45 10          	mov    0x10(%r13),%rax
    253e:	49 8b 55 18          	mov    0x18(%r13),%rdx
    2542:	48 33 45 b0          	xor    -0x50(%rbp),%rax
    2546:	48 33 55 b8          	xor    -0x48(%rbp),%rdx
    254a:	48 09 c2             	or     %rax,%rdx
    254d:	0f 85 ce 01 00 00    	jne    2721 <find_super_block+0x321>
find_super_block():
/home/austen/programming/dm-afs/src/dm_afs_metadata.c:639
            sb_tries++;
        }else{
            break; 
        }
    }
    allocation_set(&context->vector, sb_block[0]);
    2553:	49 8d 9e 08 21 00 00 	lea    0x2108(%r14),%rbx
    255a:	44 89 fe             	mov    %r15d,%esi
    255d:	48 89 df             	mov    %rbx,%rdi
    2560:	e8 00 00 00 00       	callq  2565 <find_super_block+0x165>
			2561: R_X86_64_PC32	allocation_set-0x4
/home/austen/programming/dm-afs/src/dm_afs_metadata.c:644

    afs_action(!ret, ret = -ENOENT, err, "super block corrupted");

    // Confirm size is same.
    afs_action(config->instance_size == sb->instance_size, ret = -EINVAL, err,
    2565:	49 8b 4e 28          	mov    0x28(%r14),%rcx
    2569:	4d 8b 45 34          	mov    0x34(%r13),%r8
    256d:	4c 39 c1             	cmp    %r8,%rcx
    2570:	0f 85 18 03 00 00    	jne    288e <find_super_block+0x48e>
/home/austen/programming/dm-afs/src/dm_afs_metadata.c:648
        "incorrect size provided [%llu:%llu]", config->instance_size, sb->instance_size);

    // TODO: Acquire from RS params in SB.
    build_configuration(context, 4, 1);
    2576:	ba 01 00 00 00       	mov    $0x1,%edx
    257b:	be 04 00 00 00       	mov    $0x4,%esi
    2580:	4c 89 f7             	mov    %r14,%rdi
    2583:	e8 00 00 00 00       	callq  2588 <find_super_block+0x188>
			2584: R_X86_64_PC32	build_configuration-0x4
/home/austen/programming/dm-afs/src/dm_afs_metadata.c:650

    ret = afs_create_map(context);
    2588:	4c 89 f7             	mov    %r14,%rdi
    258b:	e8 00 00 00 00       	callq  2590 <find_super_block+0x190>
			258c: R_X86_64_PC32	afs_create_map-0x4
/home/austen/programming/dm-afs/src/dm_afs_metadata.c:651
    afs_assert(!ret, err, "could not create artifice map [%d]", ret);
    2590:	85 c0                	test   %eax,%eax
    2592:	0f 85 1b 03 00 00    	jne    28b3 <find_super_block+0x4b3>
/home/austen/programming/dm-afs/src/dm_afs_metadata.c:653

    ret = afs_fill_map(sb, context);
    2598:	4c 89 f6             	mov    %r14,%rsi
    259b:	4c 89 ef             	mov    %r13,%rdi
    259e:	e8 00 00 00 00       	callq  25a3 <find_super_block+0x1a3>
			259f: R_X86_64_PC32	afs_fill_map-0x4
/home/austen/programming/dm-afs/src/dm_afs_metadata.c:654
    afs_assert(!ret, map_fill_err, "could not fill artifice map [%d]", ret);
    25a3:	85 c0                	test   %eax,%eax
/home/austen/programming/dm-afs/src/dm_afs_metadata.c:653
    ret = afs_fill_map(sb, context);
    25a5:	41 89 c4             	mov    %eax,%r12d
/home/austen/programming/dm-afs/src/dm_afs_metadata.c:654
    afs_assert(!ret, map_fill_err, "could not fill artifice map [%d]", ret);
    25a8:	0f 85 33 03 00 00    	jne    28e1 <find_super_block+0x4e1>
rebuild_allocation_vector():
/home/austen/programming/dm-afs/src/dm_afs_metadata.c:553
    afs_map = context->afs_map;
    25ae:	49 8b 86 50 b0 03 00 	mov    0x3b050(%r14),%rax
/home/austen/programming/dm-afs/src/dm_afs_metadata.c:555
    num_carrier_blocks = config->num_carrier_blocks;
    25b5:	45 0f b6 7e 10       	movzbl 0x10(%r14),%r15d
/home/austen/programming/dm-afs/src/dm_afs_metadata.c:553
    afs_map = context->afs_map;
    25ba:	48 89 85 f0 fe ff ff 	mov    %rax,-0x110(%rbp)
/home/austen/programming/dm-afs/src/dm_afs_metadata.c:554
    num_entries = config->num_blocks;
    25c1:	41 8b 46 18          	mov    0x18(%r14),%eax
    25c5:	89 c6                	mov    %eax,%esi
    25c7:	89 85 ec fe ff ff    	mov    %eax,-0x114(%rbp)
/home/austen/programming/dm-afs/src/dm_afs_metadata.c:556
    map_entry_sz = config->map_entry_sz;
    25cd:	41 0f b6 46 12       	movzbl 0x12(%r14),%eax
/home/austen/programming/dm-afs/src/dm_afs_metadata.c:558
    for (i = 0; i < num_entries; i++) {
    25d2:	85 f6                	test   %esi,%esi
    25d4:	0f 84 84 00 00 00    	je     265e <find_super_block+0x25e>
    25da:	41 0f b6 f7          	movzbl %r15b,%esi
    25de:	89 85 e8 fe ff ff    	mov    %eax,-0x118(%rbp)
    25e4:	45 31 ff             	xor    %r15d,%r15d
    25e7:	8d 46 ff             	lea    -0x1(%rsi),%eax
    25ea:	89 b5 e4 fe ff ff    	mov    %esi,-0x11c(%rbp)
    25f0:	c7 85 f8 fe ff ff 00 	movl   $0x0,-0x108(%rbp)
    25f7:	00 00 00 
    25fa:	48 8d 44 80 05       	lea    0x5(%rax,%rax,4),%rax
    25ff:	48 01 c0             	add    %rax,%rax
    2602:	48 89 85 d8 fe ff ff 	mov    %rax,-0x128(%rbp)
/home/austen/programming/dm-afs/src/dm_afs_metadata.c:559
        map_tuple = (struct afs_map_tuple *)(afs_map + (i * map_entry_sz));
    2609:	48 8b 85 f0 fe ff ff 	mov    -0x110(%rbp),%rax
    2610:	44 89 fa             	mov    %r15d,%edx
    2613:	4c 8d 2c 10          	lea    (%rax,%rdx,1),%r13
/home/austen/programming/dm-afs/src/dm_afs_metadata.c:560
        for (j = 0; j < num_carrier_blocks; j++) {
    2617:	8b 95 e4 fe ff ff    	mov    -0x11c(%rbp),%edx
    261d:	85 d2                	test   %edx,%edx
    261f:	74 21                	je     2642 <find_super_block+0x242>
    2621:	48 8b 85 d8 fe ff ff 	mov    -0x128(%rbp),%rax
    2628:	4d 8d 64 05 00       	lea    0x0(%r13,%rax,1),%r12
/home/austen/programming/dm-afs/src/dm_afs_metadata.c:561
            allocation_set(&context->vector, map_tuple->carrier_block_ptr);
    262d:	41 8b 75 00          	mov    0x0(%r13),%esi
    2631:	48 89 df             	mov    %rbx,%rdi
/home/austen/programming/dm-afs/src/dm_afs_metadata.c:562
            map_tuple += 1;
    2634:	49 83 c5 0a          	add    $0xa,%r13
/home/austen/programming/dm-afs/src/dm_afs_metadata.c:561
            allocation_set(&context->vector, map_tuple->carrier_block_ptr);
    2638:	e8 00 00 00 00       	callq  263d <find_super_block+0x23d>
			2639: R_X86_64_PC32	allocation_set-0x4
/home/austen/programming/dm-afs/src/dm_afs_metadata.c:560
        for (j = 0; j < num_carrier_blocks; j++) {
    263d:	4d 39 ec             	cmp    %r13,%r12
    2640:	75 eb                	jne    262d <find_super_block+0x22d>
/home/austen/programming/dm-afs/src/dm_afs_metadata.c:558
    for (i = 0; i < num_entries; i++) {
    2642:	83 85 f8 fe ff ff 01 	addl   $0x1,-0x108(%rbp)
    2649:	44 03 bd e8 fe ff ff 	add    -0x118(%rbp),%r15d
    2650:	8b 85 f8 fe ff ff    	mov    -0x108(%rbp),%eax
    2656:	39 85 ec fe ff ff    	cmp    %eax,-0x114(%rbp)
    265c:	75 ab                	jne    2609 <find_super_block+0x209>
find_super_block():
/home/austen/programming/dm-afs/src/dm_afs_metadata.c:656
    rebuild_allocation_vector(context);
    afs_debug("Artifice map rebuilt");
    265e:	8b 05 00 00 00 00    	mov    0x0(%rip),%eax        # 2664 <find_super_block+0x264>
			2660: R_X86_64_PC32	afs_debug_mode-0x4
    2664:	85 c0                	test   %eax,%eax
    2666:	0f 85 99 02 00 00    	jne    2905 <find_super_block+0x505>
/home/austen/programming/dm-afs/src/dm_afs_metadata.c:660

    // Create the Artifice Pointer Blocks. These are required for when
    // we need to re-write the map blocks.
    ptr_blocks = kmalloc(config->num_ptr_blocks * sizeof(*ptr_blocks), GFP_KERNEL);
    266c:	41 8b 7e 20          	mov    0x20(%r14),%edi
kmalloc():
/usr/src/linux-headers-4.15.0-54-generic/./include/linux/slab.h:504
    2670:	be c0 00 40 01       	mov    $0x14000c0,%esi
find_super_block():
/home/austen/programming/dm-afs/src/dm_afs_metadata.c:660
    2675:	48 c1 e7 0c          	shl    $0xc,%rdi
kmalloc():
/usr/src/linux-headers-4.15.0-54-generic/./include/linux/slab.h:504
    2679:	e8 00 00 00 00       	callq  267e <find_super_block+0x27e>
			267a: R_X86_64_PC32	__kmalloc-0x4
find_super_block():
/home/austen/programming/dm-afs/src/dm_afs_metadata.c:661
    afs_action(ptr_blocks, ret = -ENOMEM, map_fill_err, "could not allocate ptr_blocks [%d]", ret);
    267e:	48 85 c0             	test   %rax,%rax
    2681:	0f 84 f1 00 00 00    	je     2778 <find_super_block+0x378>
rebuild_ptr_blocks():
/home/austen/programming/dm-afs/src/dm_afs_metadata.c:584
    num_ptr_blocks = config->num_ptr_blocks;
    2687:	45 8b 66 20          	mov    0x20(%r14),%r12d
/home/austen/programming/dm-afs/src/dm_afs_metadata.c:578
    uint32_t data_sector_offset = context->passive_fs.data_start_off;
    268b:	41 8b 9e 14 20 00 00 	mov    0x2014(%r14),%ebx
find_super_block():
/home/austen/programming/dm-afs/src/dm_afs_metadata.c:662
    context->afs_ptr_blocks = ptr_blocks;
    2692:	49 89 86 60 b0 03 00 	mov    %rax,0x3b060(%r14)
rebuild_ptr_blocks():
/home/austen/programming/dm-afs/src/dm_afs_metadata.c:585
    for (i = 0; i < num_ptr_blocks; i++) {
    2699:	45 85 e4             	test   %r12d,%r12d
/home/austen/programming/dm-afs/src/dm_afs_metadata.c:578
    uint32_t data_sector_offset = context->passive_fs.data_start_off;
    269c:	89 9d f8 fe ff ff    	mov    %ebx,-0x108(%rbp)
/home/austen/programming/dm-afs/src/dm_afs_metadata.c:585
    for (i = 0; i < num_ptr_blocks; i++) {
    26a2:	74 45                	je     26e9 <find_super_block+0x2e9>
    26a4:	49 89 c5             	mov    %rax,%r13
    26a7:	45 31 ff             	xor    %r15d,%r15d
/home/austen/programming/dm-afs/src/dm_afs_metadata.c:586
        block_num = (i == 0) ? context->super_block.first_ptr_block : afs_ptr_blocks[i].next_ptr_block;
    26aa:	45 85 ff             	test   %r15d,%r15d
    26ad:	0f 84 b9 00 00 00    	je     276c <find_super_block+0x36c>
    26b3:	41 8b 9d fc 0f 00 00 	mov    0xffc(%r13),%ebx
/home/austen/programming/dm-afs/src/dm_afs_metadata.c:587
        ret = read_page(afs_ptr_blocks + i, context->bdev, block_num, data_sector_offset, false);
    26ba:	49 8b 76 08          	mov    0x8(%r14),%rsi
    26be:	8b 8d f8 fe ff ff    	mov    -0x108(%rbp),%ecx
    26c4:	45 31 c0             	xor    %r8d,%r8d
    26c7:	89 da                	mov    %ebx,%edx
    26c9:	4c 89 ef             	mov    %r13,%rdi
    26cc:	e8 00 00 00 00       	callq  26d1 <find_super_block+0x2d1>
			26cd: R_X86_64_PC32	read_page-0x4
/home/austen/programming/dm-afs/src/dm_afs_metadata.c:588
        afs_assert(!ret, done, "could not read pointer block [%d:%u]", ret, block_num);
    26d1:	85 c0                	test   %eax,%eax
    26d3:	0f 85 e1 00 00 00    	jne    27ba <find_super_block+0x3ba>
/home/austen/programming/dm-afs/src/dm_afs_metadata.c:585
    for (i = 0; i < num_ptr_blocks; i++) {
    26d9:	41 83 c7 01          	add    $0x1,%r15d
    26dd:	49 81 c5 00 10 00 00 	add    $0x1000,%r13
    26e4:	45 39 fc             	cmp    %r15d,%r12d
    26e7:	75 c1                	jne    26aa <find_super_block+0x2aa>
find_super_block():
/home/austen/programming/dm-afs/src/dm_afs_metadata.c:666

    ret = rebuild_ptr_blocks(context);
    afs_assert(!ret, ptr_block_err, "could not rebuild Artifice pointer blocks [%d]", ret);
    afs_debug("Artifice pointer blocks rebuilt");
    26e9:	44 8b 15 00 00 00 00 	mov    0x0(%rip),%r10d        # 26f0 <find_super_block+0x2f0>
			26ec: R_X86_64_PC32	afs_debug_mode-0x4
    26f0:	45 85 d2             	test   %r10d,%r10d
    26f3:	0f 85 1f 01 00 00    	jne    2818 <find_super_block+0x418>
/home/austen/programming/dm-afs/src/dm_afs_metadata.c:678
map_fill_err:
    vfree(context->afs_map);

err:
    return ret;
}
    26f9:	48 8b 5d c8          	mov    -0x38(%rbp),%rbx
    26fd:	65 48 33 1c 25 28 00 	xor    %gs:0x28,%rbx
    2704:	00 00 
    2706:	44 89 d0             	mov    %r10d,%eax
    2709:	0f 85 2b 01 00 00    	jne    283a <find_super_block+0x43a>
    270f:	48 81 c4 08 01 00 00 	add    $0x108,%rsp
    2716:	5b                   	pop    %rbx
    2717:	41 5c                	pop    %r12
    2719:	41 5d                	pop    %r13
    271b:	41 5e                	pop    %r14
    271d:	41 5f                	pop    %r15
    271f:	5d                   	pop    %rbp
    2720:	c3                   	retq   
/home/austen/programming/dm-afs/src/dm_afs_metadata.c:633
            afs_debug("Superblock read attempt %u failed", sb_tries);
